
kernel:     file format elf64-littleriscv


Disassembly of section .text:

0000000080000000 <_entry>:
    80000000:	00008117          	auipc	sp,0x8
    80000004:	86010113          	add	sp,sp,-1952 # 80007860 <stack0>
    80000008:	6505                	lui	a0,0x1
    8000000a:	f14025f3          	csrr	a1,mhartid
    8000000e:	0585                	add	a1,a1,1
    80000010:	02b50533          	mul	a0,a0,a1
    80000014:	912a                	add	sp,sp,a0
    80000016:	04a000ef          	jal	80000060 <start>

000000008000001a <spin>:
    8000001a:	a001                	j	8000001a <spin>

000000008000001c <timerinit>:
    8000001c:	1141                	add	sp,sp,-16
    8000001e:	e422                	sd	s0,8(sp)
    80000020:	0800                	add	s0,sp,16
    80000022:	304027f3          	csrr	a5,mie
    80000026:	0207e793          	or	a5,a5,32
    8000002a:	30479073          	csrw	mie,a5
    8000002e:	30a027f3          	csrr	a5,menvcfg
    80000032:	577d                	li	a4,-1
    80000034:	177e                	sll	a4,a4,0x3f
    80000036:	8fd9                	or	a5,a5,a4
    80000038:	30a79073          	csrw	menvcfg,a5
    8000003c:	306027f3          	csrr	a5,mcounteren
    80000040:	0027e793          	or	a5,a5,2
    80000044:	30679073          	csrw	mcounteren,a5
    80000048:	c01027f3          	rdtime	a5
    8000004c:	000f4737          	lui	a4,0xf4
    80000050:	24070713          	add	a4,a4,576 # f4240 <_entry-0x7ff0bdc0>
    80000054:	97ba                	add	a5,a5,a4
    80000056:	14d79073          	csrw	stimecmp,a5
    8000005a:	6422                	ld	s0,8(sp)
    8000005c:	0141                	add	sp,sp,16
    8000005e:	8082                	ret

0000000080000060 <start>:
    80000060:	1141                	add	sp,sp,-16
    80000062:	e406                	sd	ra,8(sp)
    80000064:	e022                	sd	s0,0(sp)
    80000066:	0800                	add	s0,sp,16
    80000068:	300027f3          	csrr	a5,mstatus
    8000006c:	7779                	lui	a4,0xffffe
    8000006e:	7ff70713          	add	a4,a4,2047 # ffffffffffffe7ff <end+0xffffffff7ffddc97>
    80000072:	8ff9                	and	a5,a5,a4
    80000074:	6705                	lui	a4,0x1
    80000076:	80070713          	add	a4,a4,-2048 # 800 <_entry-0x7ffff800>
    8000007a:	8fd9                	or	a5,a5,a4
    8000007c:	30079073          	csrw	mstatus,a5
    80000080:	00001797          	auipc	a5,0x1
    80000084:	dd678793          	add	a5,a5,-554 # 80000e56 <main>
    80000088:	34179073          	csrw	mepc,a5
    8000008c:	4781                	li	a5,0
    8000008e:	18079073          	csrw	satp,a5
    80000092:	67c1                	lui	a5,0x10
    80000094:	17fd                	add	a5,a5,-1 # ffff <_entry-0x7fff0001>
    80000096:	30279073          	csrw	medeleg,a5
    8000009a:	30379073          	csrw	mideleg,a5
    8000009e:	104027f3          	csrr	a5,sie
    800000a2:	2207e793          	or	a5,a5,544
    800000a6:	10479073          	csrw	sie,a5
    800000aa:	57fd                	li	a5,-1
    800000ac:	83a9                	srl	a5,a5,0xa
    800000ae:	3b079073          	csrw	pmpaddr0,a5
    800000b2:	47bd                	li	a5,15
    800000b4:	3a079073          	csrw	pmpcfg0,a5
    800000b8:	f65ff0ef          	jal	8000001c <timerinit>
    800000bc:	f14027f3          	csrr	a5,mhartid
    800000c0:	2781                	sext.w	a5,a5
    800000c2:	823e                	mv	tp,a5
    800000c4:	30200073          	mret
    800000c8:	60a2                	ld	ra,8(sp)
    800000ca:	6402                	ld	s0,0(sp)
    800000cc:	0141                	add	sp,sp,16
    800000ce:	8082                	ret

00000000800000d0 <consolewrite>:
    800000d0:	7159                	add	sp,sp,-112
    800000d2:	f486                	sd	ra,104(sp)
    800000d4:	f0a2                	sd	s0,96(sp)
    800000d6:	eca6                	sd	s1,88(sp)
    800000d8:	e8ca                	sd	s2,80(sp)
    800000da:	e4ce                	sd	s3,72(sp)
    800000dc:	e0d2                	sd	s4,64(sp)
    800000de:	fc56                	sd	s5,56(sp)
    800000e0:	f85a                	sd	s6,48(sp)
    800000e2:	f45e                	sd	s7,40(sp)
    800000e4:	f062                	sd	s8,32(sp)
    800000e6:	1880                	add	s0,sp,112
    800000e8:	04c05463          	blez	a2,80000130 <consolewrite+0x60>
    800000ec:	89b2                	mv	s3,a2
    800000ee:	8aae                	mv	s5,a1
    800000f0:	8a2a                	mv	s4,a0
    800000f2:	4901                	li	s2,0
    800000f4:	4bfd                	li	s7,31
    800000f6:	02000c13          	li	s8,32
    800000fa:	5b7d                	li	s6,-1
    800000fc:	a025                	j	80000124 <consolewrite+0x54>
    800000fe:	86a6                	mv	a3,s1
    80000100:	01590633          	add	a2,s2,s5
    80000104:	85d2                	mv	a1,s4
    80000106:	f9040513          	add	a0,s0,-112
    8000010a:	132020ef          	jal	8000223c <either_copyin>
    8000010e:	03650263          	beq	a0,s6,80000132 <consolewrite+0x62>
    80000112:	85a6                	mv	a1,s1
    80000114:	f9040513          	add	a0,s0,-112
    80000118:	756000ef          	jal	8000086e <uartwrite>
    8000011c:	0124893b          	addw	s2,s1,s2
    80000120:	01395963          	bge	s2,s3,80000132 <consolewrite+0x62>
    80000124:	412984bb          	subw	s1,s3,s2
    80000128:	fc9bdbe3          	bge	s7,s1,800000fe <consolewrite+0x2e>
    8000012c:	84e2                	mv	s1,s8
    8000012e:	bfc1                	j	800000fe <consolewrite+0x2e>
    80000130:	4901                	li	s2,0
    80000132:	854a                	mv	a0,s2
    80000134:	70a6                	ld	ra,104(sp)
    80000136:	7406                	ld	s0,96(sp)
    80000138:	64e6                	ld	s1,88(sp)
    8000013a:	6946                	ld	s2,80(sp)
    8000013c:	69a6                	ld	s3,72(sp)
    8000013e:	6a06                	ld	s4,64(sp)
    80000140:	7ae2                	ld	s5,56(sp)
    80000142:	7b42                	ld	s6,48(sp)
    80000144:	7ba2                	ld	s7,40(sp)
    80000146:	7c02                	ld	s8,32(sp)
    80000148:	6165                	add	sp,sp,112
    8000014a:	8082                	ret

000000008000014c <consoleread>:
    8000014c:	7119                	add	sp,sp,-128
    8000014e:	fc86                	sd	ra,120(sp)
    80000150:	f8a2                	sd	s0,112(sp)
    80000152:	f4a6                	sd	s1,104(sp)
    80000154:	f0ca                	sd	s2,96(sp)
    80000156:	ecce                	sd	s3,88(sp)
    80000158:	e8d2                	sd	s4,80(sp)
    8000015a:	e4d6                	sd	s5,72(sp)
    8000015c:	e0da                	sd	s6,64(sp)
    8000015e:	fc5e                	sd	s7,56(sp)
    80000160:	f862                	sd	s8,48(sp)
    80000162:	f466                	sd	s9,40(sp)
    80000164:	f06a                	sd	s10,32(sp)
    80000166:	ec6e                	sd	s11,24(sp)
    80000168:	0100                	add	s0,sp,128
    8000016a:	8caa                	mv	s9,a0
    8000016c:	8aae                	mv	s5,a1
    8000016e:	8a32                	mv	s4,a2
    80000170:	00060b1b          	sext.w	s6,a2
    80000174:	0000f517          	auipc	a0,0xf
    80000178:	6ec50513          	add	a0,a0,1772 # 8000f860 <cons>
    8000017c:	23b000ef          	jal	80000bb6 <acquire>
    80000180:	09405163          	blez	s4,80000202 <consoleread+0xb6>
    80000184:	0000f497          	auipc	s1,0xf
    80000188:	6dc48493          	add	s1,s1,1756 # 8000f860 <cons>
    8000018c:	89a6                	mv	s3,s1
    8000018e:	0000f917          	auipc	s2,0xf
    80000192:	76a90913          	add	s2,s2,1898 # 8000f8f8 <cons+0x98>
    80000196:	4c11                	li	s8,4
    80000198:	5d7d                	li	s10,-1
    8000019a:	4da9                	li	s11,10
    8000019c:	0984a783          	lw	a5,152(s1)
    800001a0:	09c4a703          	lw	a4,156(s1)
    800001a4:	02f71163          	bne	a4,a5,800001c6 <consoleread+0x7a>
    800001a8:	6e4010ef          	jal	8000188c <myproc>
    800001ac:	723010ef          	jal	800020ce <killed>
    800001b0:	e135                	bnez	a0,80000214 <consoleread+0xc8>
    800001b2:	85ce                	mv	a1,s3
    800001b4:	854a                	mv	a0,s2
    800001b6:	4df010ef          	jal	80001e94 <sleep>
    800001ba:	0984a783          	lw	a5,152(s1)
    800001be:	09c4a703          	lw	a4,156(s1)
    800001c2:	fef703e3          	beq	a4,a5,800001a8 <consoleread+0x5c>
    800001c6:	0017871b          	addw	a4,a5,1
    800001ca:	08e4ac23          	sw	a4,152(s1)
    800001ce:	07f7f713          	and	a4,a5,127
    800001d2:	9726                	add	a4,a4,s1
    800001d4:	01874703          	lbu	a4,24(a4)
    800001d8:	00070b9b          	sext.w	s7,a4
    800001dc:	078b8263          	beq	s7,s8,80000240 <consoleread+0xf4>
    800001e0:	f8e407a3          	sb	a4,-113(s0)
    800001e4:	4685                	li	a3,1
    800001e6:	f8f40613          	add	a2,s0,-113
    800001ea:	85d6                	mv	a1,s5
    800001ec:	8566                	mv	a0,s9
    800001ee:	004020ef          	jal	800021f2 <either_copyout>
    800001f2:	01a50863          	beq	a0,s10,80000202 <consoleread+0xb6>
    800001f6:	0a85                	add	s5,s5,1
    800001f8:	3a7d                	addw	s4,s4,-1
    800001fa:	01bb8463          	beq	s7,s11,80000202 <consoleread+0xb6>
    800001fe:	f80a1fe3          	bnez	s4,8000019c <consoleread+0x50>
    80000202:	0000f517          	auipc	a0,0xf
    80000206:	65e50513          	add	a0,a0,1630 # 8000f860 <cons>
    8000020a:	245000ef          	jal	80000c4e <release>
    8000020e:	414b053b          	subw	a0,s6,s4
    80000212:	a801                	j	80000222 <consoleread+0xd6>
    80000214:	0000f517          	auipc	a0,0xf
    80000218:	64c50513          	add	a0,a0,1612 # 8000f860 <cons>
    8000021c:	233000ef          	jal	80000c4e <release>
    80000220:	557d                	li	a0,-1
    80000222:	70e6                	ld	ra,120(sp)
    80000224:	7446                	ld	s0,112(sp)
    80000226:	74a6                	ld	s1,104(sp)
    80000228:	7906                	ld	s2,96(sp)
    8000022a:	69e6                	ld	s3,88(sp)
    8000022c:	6a46                	ld	s4,80(sp)
    8000022e:	6aa6                	ld	s5,72(sp)
    80000230:	6b06                	ld	s6,64(sp)
    80000232:	7be2                	ld	s7,56(sp)
    80000234:	7c42                	ld	s8,48(sp)
    80000236:	7ca2                	ld	s9,40(sp)
    80000238:	7d02                	ld	s10,32(sp)
    8000023a:	6de2                	ld	s11,24(sp)
    8000023c:	6109                	add	sp,sp,128
    8000023e:	8082                	ret
    80000240:	000a071b          	sext.w	a4,s4
    80000244:	fb677fe3          	bgeu	a4,s6,80000202 <consoleread+0xb6>
    80000248:	0000f717          	auipc	a4,0xf
    8000024c:	6af72823          	sw	a5,1712(a4) # 8000f8f8 <cons+0x98>
    80000250:	bf4d                	j	80000202 <consoleread+0xb6>

0000000080000252 <consputc>:
    80000252:	1141                	add	sp,sp,-16
    80000254:	e406                	sd	ra,8(sp)
    80000256:	e022                	sd	s0,0(sp)
    80000258:	0800                	add	s0,sp,16
    8000025a:	10000793          	li	a5,256
    8000025e:	00f50863          	beq	a0,a5,8000026e <consputc+0x1c>
    80000262:	6aa000ef          	jal	8000090c <uartputc_sync>
    80000266:	60a2                	ld	ra,8(sp)
    80000268:	6402                	ld	s0,0(sp)
    8000026a:	0141                	add	sp,sp,16
    8000026c:	8082                	ret
    8000026e:	4521                	li	a0,8
    80000270:	69c000ef          	jal	8000090c <uartputc_sync>
    80000274:	02000513          	li	a0,32
    80000278:	694000ef          	jal	8000090c <uartputc_sync>
    8000027c:	4521                	li	a0,8
    8000027e:	68e000ef          	jal	8000090c <uartputc_sync>
    80000282:	b7d5                	j	80000266 <consputc+0x14>

0000000080000284 <consoleintr>:
    80000284:	1101                	add	sp,sp,-32
    80000286:	ec06                	sd	ra,24(sp)
    80000288:	e822                	sd	s0,16(sp)
    8000028a:	e426                	sd	s1,8(sp)
    8000028c:	e04a                	sd	s2,0(sp)
    8000028e:	1000                	add	s0,sp,32
    80000290:	84aa                	mv	s1,a0
    80000292:	0000f517          	auipc	a0,0xf
    80000296:	5ce50513          	add	a0,a0,1486 # 8000f860 <cons>
    8000029a:	11d000ef          	jal	80000bb6 <acquire>
    8000029e:	47c1                	li	a5,16
    800002a0:	10f48e63          	beq	s1,a5,800003bc <consoleintr+0x138>
    800002a4:	0297dd63          	bge	a5,s1,800002de <consoleintr+0x5a>
    800002a8:	47d5                	li	a5,21
    800002aa:	0af48463          	beq	s1,a5,80000352 <consoleintr+0xce>
    800002ae:	07f00793          	li	a5,127
    800002b2:	02f49963          	bne	s1,a5,800002e4 <consoleintr+0x60>
    800002b6:	0000f717          	auipc	a4,0xf
    800002ba:	5aa70713          	add	a4,a4,1450 # 8000f860 <cons>
    800002be:	0a072783          	lw	a5,160(a4)
    800002c2:	09c72703          	lw	a4,156(a4)
    800002c6:	0ef70d63          	beq	a4,a5,800003c0 <consoleintr+0x13c>
    800002ca:	37fd                	addw	a5,a5,-1
    800002cc:	0000f717          	auipc	a4,0xf
    800002d0:	62f72a23          	sw	a5,1588(a4) # 8000f900 <cons+0xa0>
    800002d4:	10000513          	li	a0,256
    800002d8:	f7bff0ef          	jal	80000252 <consputc>
    800002dc:	a0d5                	j	800003c0 <consoleintr+0x13c>
    800002de:	47a1                	li	a5,8
    800002e0:	fcf48be3          	beq	s1,a5,800002b6 <consoleintr+0x32>
    800002e4:	ccf1                	beqz	s1,800003c0 <consoleintr+0x13c>
    800002e6:	0000f717          	auipc	a4,0xf
    800002ea:	57a70713          	add	a4,a4,1402 # 8000f860 <cons>
    800002ee:	0a072783          	lw	a5,160(a4)
    800002f2:	09872703          	lw	a4,152(a4)
    800002f6:	9f99                	subw	a5,a5,a4
    800002f8:	07f00713          	li	a4,127
    800002fc:	0cf76263          	bltu	a4,a5,800003c0 <consoleintr+0x13c>
    80000300:	47b5                	li	a5,13
    80000302:	0cf48b63          	beq	s1,a5,800003d8 <consoleintr+0x154>
    80000306:	8526                	mv	a0,s1
    80000308:	f4bff0ef          	jal	80000252 <consputc>
    8000030c:	0000f797          	auipc	a5,0xf
    80000310:	55478793          	add	a5,a5,1364 # 8000f860 <cons>
    80000314:	0a07a683          	lw	a3,160(a5)
    80000318:	0016871b          	addw	a4,a3,1
    8000031c:	0007061b          	sext.w	a2,a4
    80000320:	0ae7a023          	sw	a4,160(a5)
    80000324:	07f6f693          	and	a3,a3,127
    80000328:	97b6                	add	a5,a5,a3
    8000032a:	00978c23          	sb	s1,24(a5)
    8000032e:	47a9                	li	a5,10
    80000330:	0cf48963          	beq	s1,a5,80000402 <consoleintr+0x17e>
    80000334:	4791                	li	a5,4
    80000336:	0cf48663          	beq	s1,a5,80000402 <consoleintr+0x17e>
    8000033a:	0000f797          	auipc	a5,0xf
    8000033e:	52678793          	add	a5,a5,1318 # 8000f860 <cons>
    80000342:	0987a783          	lw	a5,152(a5)
    80000346:	9f1d                	subw	a4,a4,a5
    80000348:	08000793          	li	a5,128
    8000034c:	06f71a63          	bne	a4,a5,800003c0 <consoleintr+0x13c>
    80000350:	a84d                	j	80000402 <consoleintr+0x17e>
    80000352:	0000f717          	auipc	a4,0xf
    80000356:	50e70713          	add	a4,a4,1294 # 8000f860 <cons>
    8000035a:	0a072783          	lw	a5,160(a4)
    8000035e:	09c72703          	lw	a4,156(a4)
    80000362:	04f70f63          	beq	a4,a5,800003c0 <consoleintr+0x13c>
    80000366:	37fd                	addw	a5,a5,-1
    80000368:	0007871b          	sext.w	a4,a5
    8000036c:	07f7f793          	and	a5,a5,127
    80000370:	0000f697          	auipc	a3,0xf
    80000374:	4f068693          	add	a3,a3,1264 # 8000f860 <cons>
    80000378:	97b6                	add	a5,a5,a3
    8000037a:	0187c683          	lbu	a3,24(a5)
    8000037e:	47a9                	li	a5,10
    80000380:	0000f497          	auipc	s1,0xf
    80000384:	4e048493          	add	s1,s1,1248 # 8000f860 <cons>
    80000388:	4929                	li	s2,10
    8000038a:	02f68b63          	beq	a3,a5,800003c0 <consoleintr+0x13c>
    8000038e:	0ae4a023          	sw	a4,160(s1)
    80000392:	10000513          	li	a0,256
    80000396:	ebdff0ef          	jal	80000252 <consputc>
    8000039a:	0a04a783          	lw	a5,160(s1)
    8000039e:	09c4a703          	lw	a4,156(s1)
    800003a2:	00f70f63          	beq	a4,a5,800003c0 <consoleintr+0x13c>
    800003a6:	37fd                	addw	a5,a5,-1
    800003a8:	0007871b          	sext.w	a4,a5
    800003ac:	07f7f793          	and	a5,a5,127
    800003b0:	97a6                	add	a5,a5,s1
    800003b2:	0187c783          	lbu	a5,24(a5)
    800003b6:	fd279ce3          	bne	a5,s2,8000038e <consoleintr+0x10a>
    800003ba:	a019                	j	800003c0 <consoleintr+0x13c>
    800003bc:	6cb010ef          	jal	80002286 <procdump>
    800003c0:	0000f517          	auipc	a0,0xf
    800003c4:	4a050513          	add	a0,a0,1184 # 8000f860 <cons>
    800003c8:	087000ef          	jal	80000c4e <release>
    800003cc:	60e2                	ld	ra,24(sp)
    800003ce:	6442                	ld	s0,16(sp)
    800003d0:	64a2                	ld	s1,8(sp)
    800003d2:	6902                	ld	s2,0(sp)
    800003d4:	6105                	add	sp,sp,32
    800003d6:	8082                	ret
    800003d8:	4529                	li	a0,10
    800003da:	e79ff0ef          	jal	80000252 <consputc>
    800003de:	0000f797          	auipc	a5,0xf
    800003e2:	48278793          	add	a5,a5,1154 # 8000f860 <cons>
    800003e6:	0a07a703          	lw	a4,160(a5)
    800003ea:	0017069b          	addw	a3,a4,1
    800003ee:	0006861b          	sext.w	a2,a3
    800003f2:	0ad7a023          	sw	a3,160(a5)
    800003f6:	07f77713          	and	a4,a4,127
    800003fa:	97ba                	add	a5,a5,a4
    800003fc:	4729                	li	a4,10
    800003fe:	00e78c23          	sb	a4,24(a5)
    80000402:	0000f797          	auipc	a5,0xf
    80000406:	4ec7ad23          	sw	a2,1274(a5) # 8000f8fc <cons+0x9c>
    8000040a:	0000f517          	auipc	a0,0xf
    8000040e:	4ee50513          	add	a0,a0,1262 # 8000f8f8 <cons+0x98>
    80000412:	2cf010ef          	jal	80001ee0 <wakeup>
    80000416:	b76d                	j	800003c0 <consoleintr+0x13c>

0000000080000418 <consoleinit>:
    80000418:	1141                	add	sp,sp,-16
    8000041a:	e406                	sd	ra,8(sp)
    8000041c:	e022                	sd	s0,0(sp)
    8000041e:	0800                	add	s0,sp,16
    80000420:	00007597          	auipc	a1,0x7
    80000424:	bf058593          	add	a1,a1,-1040 # 80007010 <etext+0x10>
    80000428:	0000f517          	auipc	a0,0xf
    8000042c:	43850513          	add	a0,a0,1080 # 8000f860 <cons>
    80000430:	706000ef          	jal	80000b36 <initlock>
    80000434:	3ee000ef          	jal	80000822 <uartinit>
    80000438:	0001f797          	auipc	a5,0x1f
    8000043c:	59878793          	add	a5,a5,1432 # 8001f9d0 <devsw>
    80000440:	00000717          	auipc	a4,0x0
    80000444:	d0c70713          	add	a4,a4,-756 # 8000014c <consoleread>
    80000448:	eb98                	sd	a4,16(a5)
    8000044a:	00000717          	auipc	a4,0x0
    8000044e:	c8670713          	add	a4,a4,-890 # 800000d0 <consolewrite>
    80000452:	ef98                	sd	a4,24(a5)
    80000454:	60a2                	ld	ra,8(sp)
    80000456:	6402                	ld	s0,0(sp)
    80000458:	0141                	add	sp,sp,16
    8000045a:	8082                	ret

000000008000045c <printint>:
    8000045c:	7139                	add	sp,sp,-64
    8000045e:	fc06                	sd	ra,56(sp)
    80000460:	f822                	sd	s0,48(sp)
    80000462:	f426                	sd	s1,40(sp)
    80000464:	f04a                	sd	s2,32(sp)
    80000466:	0080                	add	s0,sp,64
    80000468:	c219                	beqz	a2,8000046e <printint+0x12>
    8000046a:	00054b63          	bltz	a0,80000480 <printint+0x24>
    8000046e:	4881                	li	a7,0
    80000470:	fc840713          	add	a4,s0,-56
    80000474:	4601                	li	a2,0
    80000476:	00007817          	auipc	a6,0x7
    8000047a:	ba280813          	add	a6,a6,-1118 # 80007018 <digits>
    8000047e:	a039                	j	8000048c <printint+0x30>
    80000480:	40a00533          	neg	a0,a0
    80000484:	4885                	li	a7,1
    80000486:	b7ed                	j	80000470 <printint+0x14>
    80000488:	853e                	mv	a0,a5
    8000048a:	8636                	mv	a2,a3
    8000048c:	0016069b          	addw	a3,a2,1
    80000490:	02b577b3          	remu	a5,a0,a1
    80000494:	97c2                	add	a5,a5,a6
    80000496:	0007c783          	lbu	a5,0(a5)
    8000049a:	00f70023          	sb	a5,0(a4)
    8000049e:	02b557b3          	divu	a5,a0,a1
    800004a2:	0705                	add	a4,a4,1
    800004a4:	feb572e3          	bgeu	a0,a1,80000488 <printint+0x2c>
    800004a8:	00088b63          	beqz	a7,800004be <printint+0x62>
    800004ac:	fe040793          	add	a5,s0,-32
    800004b0:	96be                	add	a3,a3,a5
    800004b2:	02d00793          	li	a5,45
    800004b6:	fef68423          	sb	a5,-24(a3)
    800004ba:	0026069b          	addw	a3,a2,2
    800004be:	02d05563          	blez	a3,800004e8 <printint+0x8c>
    800004c2:	fc840793          	add	a5,s0,-56
    800004c6:	00d784b3          	add	s1,a5,a3
    800004ca:	fff78913          	add	s2,a5,-1
    800004ce:	9936                	add	s2,s2,a3
    800004d0:	36fd                	addw	a3,a3,-1
    800004d2:	1682                	sll	a3,a3,0x20
    800004d4:	9281                	srl	a3,a3,0x20
    800004d6:	40d90933          	sub	s2,s2,a3
    800004da:	fff4c503          	lbu	a0,-1(s1)
    800004de:	d75ff0ef          	jal	80000252 <consputc>
    800004e2:	14fd                	add	s1,s1,-1
    800004e4:	ff249be3          	bne	s1,s2,800004da <printint+0x7e>
    800004e8:	70e2                	ld	ra,56(sp)
    800004ea:	7442                	ld	s0,48(sp)
    800004ec:	74a2                	ld	s1,40(sp)
    800004ee:	7902                	ld	s2,32(sp)
    800004f0:	6121                	add	sp,sp,64
    800004f2:	8082                	ret

00000000800004f4 <printf>:
    800004f4:	7131                	add	sp,sp,-192
    800004f6:	fc86                	sd	ra,120(sp)
    800004f8:	f8a2                	sd	s0,112(sp)
    800004fa:	f4a6                	sd	s1,104(sp)
    800004fc:	f0ca                	sd	s2,96(sp)
    800004fe:	ecce                	sd	s3,88(sp)
    80000500:	e8d2                	sd	s4,80(sp)
    80000502:	e4d6                	sd	s5,72(sp)
    80000504:	e0da                	sd	s6,64(sp)
    80000506:	fc5e                	sd	s7,56(sp)
    80000508:	f862                	sd	s8,48(sp)
    8000050a:	f466                	sd	s9,40(sp)
    8000050c:	f06a                	sd	s10,32(sp)
    8000050e:	ec6e                	sd	s11,24(sp)
    80000510:	0100                	add	s0,sp,128
    80000512:	8a2a                	mv	s4,a0
    80000514:	e40c                	sd	a1,8(s0)
    80000516:	e810                	sd	a2,16(s0)
    80000518:	ec14                	sd	a3,24(s0)
    8000051a:	f018                	sd	a4,32(s0)
    8000051c:	f41c                	sd	a5,40(s0)
    8000051e:	03043823          	sd	a6,48(s0)
    80000522:	03143c23          	sd	a7,56(s0)
    80000526:	00007797          	auipc	a5,0x7
    8000052a:	30e78793          	add	a5,a5,782 # 80007834 <panicking>
    8000052e:	439c                	lw	a5,0(a5)
    80000530:	2781                	sext.w	a5,a5
    80000532:	cb9d                	beqz	a5,80000568 <printf+0x74>
    80000534:	00840793          	add	a5,s0,8
    80000538:	f8f43423          	sd	a5,-120(s0)
    8000053c:	000a4503          	lbu	a0,0(s4)
    80000540:	24050363          	beqz	a0,80000786 <printf+0x292>
    80000544:	4981                	li	s3,0
    80000546:	02500a93          	li	s5,37
    8000054a:	06400b13          	li	s6,100
    8000054e:	06c00c13          	li	s8,108
    80000552:	07500c93          	li	s9,117
    80000556:	07800d13          	li	s10,120
    8000055a:	07000d93          	li	s11,112
    8000055e:	00007b97          	auipc	s7,0x7
    80000562:	abab8b93          	add	s7,s7,-1350 # 80007018 <digits>
    80000566:	a01d                	j	8000058c <printf+0x98>
    80000568:	0000f517          	auipc	a0,0xf
    8000056c:	3a050513          	add	a0,a0,928 # 8000f908 <pr>
    80000570:	646000ef          	jal	80000bb6 <acquire>
    80000574:	b7c1                	j	80000534 <printf+0x40>
    80000576:	cddff0ef          	jal	80000252 <consputc>
    8000057a:	84ce                	mv	s1,s3
    8000057c:	0014899b          	addw	s3,s1,1
    80000580:	013a07b3          	add	a5,s4,s3
    80000584:	0007c503          	lbu	a0,0(a5)
    80000588:	1e050f63          	beqz	a0,80000786 <printf+0x292>
    8000058c:	ff5515e3          	bne	a0,s5,80000576 <printf+0x82>
    80000590:	0019849b          	addw	s1,s3,1
    80000594:	009a07b3          	add	a5,s4,s1
    80000598:	0007c903          	lbu	s2,0(a5)
    8000059c:	1e090563          	beqz	s2,80000786 <printf+0x292>
    800005a0:	0017c783          	lbu	a5,1(a5)
    800005a4:	86be                	mv	a3,a5
    800005a6:	c789                	beqz	a5,800005b0 <printf+0xbc>
    800005a8:	009a0733          	add	a4,s4,s1
    800005ac:	00274683          	lbu	a3,2(a4)
    800005b0:	03690863          	beq	s2,s6,800005e0 <printf+0xec>
    800005b4:	05890263          	beq	s2,s8,800005f8 <printf+0x104>
    800005b8:	0d990163          	beq	s2,s9,8000067a <printf+0x186>
    800005bc:	11a90863          	beq	s2,s10,800006cc <printf+0x1d8>
    800005c0:	15b90163          	beq	s2,s11,80000702 <printf+0x20e>
    800005c4:	06300793          	li	a5,99
    800005c8:	16f90963          	beq	s2,a5,8000073a <printf+0x246>
    800005cc:	07300793          	li	a5,115
    800005d0:	16f90f63          	beq	s2,a5,8000074e <printf+0x25a>
    800005d4:	03591c63          	bne	s2,s5,8000060c <printf+0x118>
    800005d8:	8556                	mv	a0,s5
    800005da:	c79ff0ef          	jal	80000252 <consputc>
    800005de:	bf79                	j	8000057c <printf+0x88>
    800005e0:	f8843783          	ld	a5,-120(s0)
    800005e4:	00878713          	add	a4,a5,8
    800005e8:	f8e43423          	sd	a4,-120(s0)
    800005ec:	4605                	li	a2,1
    800005ee:	45a9                	li	a1,10
    800005f0:	4388                	lw	a0,0(a5)
    800005f2:	e6bff0ef          	jal	8000045c <printint>
    800005f6:	b759                	j	8000057c <printf+0x88>
    800005f8:	03678163          	beq	a5,s6,8000061a <printf+0x126>
    800005fc:	03878d63          	beq	a5,s8,80000636 <printf+0x142>
    80000600:	09978a63          	beq	a5,s9,80000694 <printf+0x1a0>
    80000604:	03878b63          	beq	a5,s8,8000063a <printf+0x146>
    80000608:	0da78f63          	beq	a5,s10,800006e6 <printf+0x1f2>
    8000060c:	8556                	mv	a0,s5
    8000060e:	c45ff0ef          	jal	80000252 <consputc>
    80000612:	854a                	mv	a0,s2
    80000614:	c3fff0ef          	jal	80000252 <consputc>
    80000618:	b795                	j	8000057c <printf+0x88>
    8000061a:	f8843783          	ld	a5,-120(s0)
    8000061e:	00878713          	add	a4,a5,8
    80000622:	f8e43423          	sd	a4,-120(s0)
    80000626:	4605                	li	a2,1
    80000628:	45a9                	li	a1,10
    8000062a:	6388                	ld	a0,0(a5)
    8000062c:	e31ff0ef          	jal	8000045c <printint>
    80000630:	0029849b          	addw	s1,s3,2
    80000634:	b7a1                	j	8000057c <printf+0x88>
    80000636:	03668463          	beq	a3,s6,8000065e <printf+0x16a>
    8000063a:	07968b63          	beq	a3,s9,800006b0 <printf+0x1bc>
    8000063e:	fda697e3          	bne	a3,s10,8000060c <printf+0x118>
    80000642:	f8843783          	ld	a5,-120(s0)
    80000646:	00878713          	add	a4,a5,8
    8000064a:	f8e43423          	sd	a4,-120(s0)
    8000064e:	4601                	li	a2,0
    80000650:	45c1                	li	a1,16
    80000652:	6388                	ld	a0,0(a5)
    80000654:	e09ff0ef          	jal	8000045c <printint>
    80000658:	0039849b          	addw	s1,s3,3
    8000065c:	b705                	j	8000057c <printf+0x88>
    8000065e:	f8843783          	ld	a5,-120(s0)
    80000662:	00878713          	add	a4,a5,8
    80000666:	f8e43423          	sd	a4,-120(s0)
    8000066a:	4605                	li	a2,1
    8000066c:	45a9                	li	a1,10
    8000066e:	6388                	ld	a0,0(a5)
    80000670:	dedff0ef          	jal	8000045c <printint>
    80000674:	0039849b          	addw	s1,s3,3
    80000678:	b711                	j	8000057c <printf+0x88>
    8000067a:	f8843783          	ld	a5,-120(s0)
    8000067e:	00878713          	add	a4,a5,8
    80000682:	f8e43423          	sd	a4,-120(s0)
    80000686:	4601                	li	a2,0
    80000688:	45a9                	li	a1,10
    8000068a:	0007e503          	lwu	a0,0(a5)
    8000068e:	dcfff0ef          	jal	8000045c <printint>
    80000692:	b5ed                	j	8000057c <printf+0x88>
    80000694:	f8843783          	ld	a5,-120(s0)
    80000698:	00878713          	add	a4,a5,8
    8000069c:	f8e43423          	sd	a4,-120(s0)
    800006a0:	4601                	li	a2,0
    800006a2:	45a9                	li	a1,10
    800006a4:	6388                	ld	a0,0(a5)
    800006a6:	db7ff0ef          	jal	8000045c <printint>
    800006aa:	0029849b          	addw	s1,s3,2
    800006ae:	b5f9                	j	8000057c <printf+0x88>
    800006b0:	f8843783          	ld	a5,-120(s0)
    800006b4:	00878713          	add	a4,a5,8
    800006b8:	f8e43423          	sd	a4,-120(s0)
    800006bc:	4601                	li	a2,0
    800006be:	45a9                	li	a1,10
    800006c0:	6388                	ld	a0,0(a5)
    800006c2:	d9bff0ef          	jal	8000045c <printint>
    800006c6:	0039849b          	addw	s1,s3,3
    800006ca:	bd4d                	j	8000057c <printf+0x88>
    800006cc:	f8843783          	ld	a5,-120(s0)
    800006d0:	00878713          	add	a4,a5,8
    800006d4:	f8e43423          	sd	a4,-120(s0)
    800006d8:	4601                	li	a2,0
    800006da:	45c1                	li	a1,16
    800006dc:	0007e503          	lwu	a0,0(a5)
    800006e0:	d7dff0ef          	jal	8000045c <printint>
    800006e4:	bd61                	j	8000057c <printf+0x88>
    800006e6:	f8843783          	ld	a5,-120(s0)
    800006ea:	00878713          	add	a4,a5,8
    800006ee:	f8e43423          	sd	a4,-120(s0)
    800006f2:	4601                	li	a2,0
    800006f4:	45c1                	li	a1,16
    800006f6:	6388                	ld	a0,0(a5)
    800006f8:	d65ff0ef          	jal	8000045c <printint>
    800006fc:	0029849b          	addw	s1,s3,2
    80000700:	bdb5                	j	8000057c <printf+0x88>
    80000702:	f8843783          	ld	a5,-120(s0)
    80000706:	00878713          	add	a4,a5,8
    8000070a:	f8e43423          	sd	a4,-120(s0)
    8000070e:	0007b983          	ld	s3,0(a5)
    80000712:	03000513          	li	a0,48
    80000716:	b3dff0ef          	jal	80000252 <consputc>
    8000071a:	856a                	mv	a0,s10
    8000071c:	b37ff0ef          	jal	80000252 <consputc>
    80000720:	4941                	li	s2,16
    80000722:	03c9d793          	srl	a5,s3,0x3c
    80000726:	97de                	add	a5,a5,s7
    80000728:	0007c503          	lbu	a0,0(a5)
    8000072c:	b27ff0ef          	jal	80000252 <consputc>
    80000730:	0992                	sll	s3,s3,0x4
    80000732:	397d                	addw	s2,s2,-1
    80000734:	fe0917e3          	bnez	s2,80000722 <printf+0x22e>
    80000738:	b591                	j	8000057c <printf+0x88>
    8000073a:	f8843783          	ld	a5,-120(s0)
    8000073e:	00878713          	add	a4,a5,8
    80000742:	f8e43423          	sd	a4,-120(s0)
    80000746:	4388                	lw	a0,0(a5)
    80000748:	b0bff0ef          	jal	80000252 <consputc>
    8000074c:	bd05                	j	8000057c <printf+0x88>
    8000074e:	f8843783          	ld	a5,-120(s0)
    80000752:	00878713          	add	a4,a5,8
    80000756:	f8e43423          	sd	a4,-120(s0)
    8000075a:	0007b903          	ld	s2,0(a5)
    8000075e:	00090d63          	beqz	s2,80000778 <printf+0x284>
    80000762:	00094503          	lbu	a0,0(s2)
    80000766:	e0050be3          	beqz	a0,8000057c <printf+0x88>
    8000076a:	ae9ff0ef          	jal	80000252 <consputc>
    8000076e:	0905                	add	s2,s2,1
    80000770:	00094503          	lbu	a0,0(s2)
    80000774:	f97d                	bnez	a0,8000076a <printf+0x276>
    80000776:	b519                	j	8000057c <printf+0x88>
    80000778:	00007917          	auipc	s2,0x7
    8000077c:	8b890913          	add	s2,s2,-1864 # 80007030 <digits+0x18>
    80000780:	02800513          	li	a0,40
    80000784:	b7dd                	j	8000076a <printf+0x276>
    80000786:	00007797          	auipc	a5,0x7
    8000078a:	0ae78793          	add	a5,a5,174 # 80007834 <panicking>
    8000078e:	439c                	lw	a5,0(a5)
    80000790:	2781                	sext.w	a5,a5
    80000792:	c38d                	beqz	a5,800007b4 <printf+0x2c0>
    80000794:	4501                	li	a0,0
    80000796:	70e6                	ld	ra,120(sp)
    80000798:	7446                	ld	s0,112(sp)
    8000079a:	74a6                	ld	s1,104(sp)
    8000079c:	7906                	ld	s2,96(sp)
    8000079e:	69e6                	ld	s3,88(sp)
    800007a0:	6a46                	ld	s4,80(sp)
    800007a2:	6aa6                	ld	s5,72(sp)
    800007a4:	6b06                	ld	s6,64(sp)
    800007a6:	7be2                	ld	s7,56(sp)
    800007a8:	7c42                	ld	s8,48(sp)
    800007aa:	7ca2                	ld	s9,40(sp)
    800007ac:	7d02                	ld	s10,32(sp)
    800007ae:	6de2                	ld	s11,24(sp)
    800007b0:	6129                	add	sp,sp,192
    800007b2:	8082                	ret
    800007b4:	0000f517          	auipc	a0,0xf
    800007b8:	15450513          	add	a0,a0,340 # 8000f908 <pr>
    800007bc:	492000ef          	jal	80000c4e <release>
    800007c0:	bfd1                	j	80000794 <printf+0x2a0>

00000000800007c2 <panic>:
    800007c2:	1101                	add	sp,sp,-32
    800007c4:	ec06                	sd	ra,24(sp)
    800007c6:	e822                	sd	s0,16(sp)
    800007c8:	e426                	sd	s1,8(sp)
    800007ca:	e04a                	sd	s2,0(sp)
    800007cc:	1000                	add	s0,sp,32
    800007ce:	892a                	mv	s2,a0
    800007d0:	4485                	li	s1,1
    800007d2:	00007797          	auipc	a5,0x7
    800007d6:	0697a123          	sw	s1,98(a5) # 80007834 <panicking>
    800007da:	00007517          	auipc	a0,0x7
    800007de:	85e50513          	add	a0,a0,-1954 # 80007038 <digits+0x20>
    800007e2:	d13ff0ef          	jal	800004f4 <printf>
    800007e6:	85ca                	mv	a1,s2
    800007e8:	00007517          	auipc	a0,0x7
    800007ec:	85850513          	add	a0,a0,-1960 # 80007040 <digits+0x28>
    800007f0:	d05ff0ef          	jal	800004f4 <printf>
    800007f4:	00007797          	auipc	a5,0x7
    800007f8:	0297ae23          	sw	s1,60(a5) # 80007830 <panicked>
    800007fc:	a001                	j	800007fc <panic+0x3a>

00000000800007fe <printfinit>:
    800007fe:	1141                	add	sp,sp,-16
    80000800:	e406                	sd	ra,8(sp)
    80000802:	e022                	sd	s0,0(sp)
    80000804:	0800                	add	s0,sp,16
    80000806:	00007597          	auipc	a1,0x7
    8000080a:	84258593          	add	a1,a1,-1982 # 80007048 <digits+0x30>
    8000080e:	0000f517          	auipc	a0,0xf
    80000812:	0fa50513          	add	a0,a0,250 # 8000f908 <pr>
    80000816:	320000ef          	jal	80000b36 <initlock>
    8000081a:	60a2                	ld	ra,8(sp)
    8000081c:	6402                	ld	s0,0(sp)
    8000081e:	0141                	add	sp,sp,16
    80000820:	8082                	ret

0000000080000822 <uartinit>:
    80000822:	1141                	add	sp,sp,-16
    80000824:	e406                	sd	ra,8(sp)
    80000826:	e022                	sd	s0,0(sp)
    80000828:	0800                	add	s0,sp,16
    8000082a:	100007b7          	lui	a5,0x10000
    8000082e:	000780a3          	sb	zero,1(a5) # 10000001 <_entry-0x6fffffff>
    80000832:	f8000713          	li	a4,-128
    80000836:	00e781a3          	sb	a4,3(a5)
    8000083a:	470d                	li	a4,3
    8000083c:	00e78023          	sb	a4,0(a5)
    80000840:	000780a3          	sb	zero,1(a5)
    80000844:	00e781a3          	sb	a4,3(a5)
    80000848:	469d                	li	a3,7
    8000084a:	00d78123          	sb	a3,2(a5)
    8000084e:	00e780a3          	sb	a4,1(a5)
    80000852:	00006597          	auipc	a1,0x6
    80000856:	7fe58593          	add	a1,a1,2046 # 80007050 <digits+0x38>
    8000085a:	0000f517          	auipc	a0,0xf
    8000085e:	0c650513          	add	a0,a0,198 # 8000f920 <tx_lock>
    80000862:	2d4000ef          	jal	80000b36 <initlock>
    80000866:	60a2                	ld	ra,8(sp)
    80000868:	6402                	ld	s0,0(sp)
    8000086a:	0141                	add	sp,sp,16
    8000086c:	8082                	ret

000000008000086e <uartwrite>:
    8000086e:	715d                	add	sp,sp,-80
    80000870:	e486                	sd	ra,72(sp)
    80000872:	e0a2                	sd	s0,64(sp)
    80000874:	fc26                	sd	s1,56(sp)
    80000876:	f84a                	sd	s2,48(sp)
    80000878:	f44e                	sd	s3,40(sp)
    8000087a:	f052                	sd	s4,32(sp)
    8000087c:	ec56                	sd	s5,24(sp)
    8000087e:	e85a                	sd	s6,16(sp)
    80000880:	e45e                	sd	s7,8(sp)
    80000882:	0880                	add	s0,sp,80
    80000884:	84aa                	mv	s1,a0
    80000886:	8aae                	mv	s5,a1
    80000888:	0000f517          	auipc	a0,0xf
    8000088c:	09850513          	add	a0,a0,152 # 8000f920 <tx_lock>
    80000890:	326000ef          	jal	80000bb6 <acquire>
    80000894:	05505b63          	blez	s5,800008ea <uartwrite+0x7c>
    80000898:	8a26                	mv	s4,s1
    8000089a:	0485                	add	s1,s1,1
    8000089c:	3afd                	addw	s5,s5,-1
    8000089e:	1a82                	sll	s5,s5,0x20
    800008a0:	020ada93          	srl	s5,s5,0x20
    800008a4:	9aa6                	add	s5,s5,s1
    800008a6:	00007497          	auipc	s1,0x7
    800008aa:	f9648493          	add	s1,s1,-106 # 8000783c <tx_busy>
    800008ae:	0000f997          	auipc	s3,0xf
    800008b2:	07298993          	add	s3,s3,114 # 8000f920 <tx_lock>
    800008b6:	00007917          	auipc	s2,0x7
    800008ba:	f8290913          	add	s2,s2,-126 # 80007838 <tx_chan>
    800008be:	10000bb7          	lui	s7,0x10000
    800008c2:	4b05                	li	s6,1
    800008c4:	a811                	j	800008d8 <uartwrite+0x6a>
    800008c6:	000a4783          	lbu	a5,0(s4)
    800008ca:	00fb8023          	sb	a5,0(s7) # 10000000 <_entry-0x70000000>
    800008ce:	0164a023          	sw	s6,0(s1)
    800008d2:	0a05                	add	s4,s4,1
    800008d4:	015a0b63          	beq	s4,s5,800008ea <uartwrite+0x7c>
    800008d8:	409c                	lw	a5,0(s1)
    800008da:	d7f5                	beqz	a5,800008c6 <uartwrite+0x58>
    800008dc:	85ce                	mv	a1,s3
    800008de:	854a                	mv	a0,s2
    800008e0:	5b4010ef          	jal	80001e94 <sleep>
    800008e4:	409c                	lw	a5,0(s1)
    800008e6:	fbfd                	bnez	a5,800008dc <uartwrite+0x6e>
    800008e8:	bff9                	j	800008c6 <uartwrite+0x58>
    800008ea:	0000f517          	auipc	a0,0xf
    800008ee:	03650513          	add	a0,a0,54 # 8000f920 <tx_lock>
    800008f2:	35c000ef          	jal	80000c4e <release>
    800008f6:	60a6                	ld	ra,72(sp)
    800008f8:	6406                	ld	s0,64(sp)
    800008fa:	74e2                	ld	s1,56(sp)
    800008fc:	7942                	ld	s2,48(sp)
    800008fe:	79a2                	ld	s3,40(sp)
    80000900:	7a02                	ld	s4,32(sp)
    80000902:	6ae2                	ld	s5,24(sp)
    80000904:	6b42                	ld	s6,16(sp)
    80000906:	6ba2                	ld	s7,8(sp)
    80000908:	6161                	add	sp,sp,80
    8000090a:	8082                	ret

000000008000090c <uartputc_sync>:
    8000090c:	1101                	add	sp,sp,-32
    8000090e:	ec06                	sd	ra,24(sp)
    80000910:	e822                	sd	s0,16(sp)
    80000912:	e426                	sd	s1,8(sp)
    80000914:	1000                	add	s0,sp,32
    80000916:	84aa                	mv	s1,a0
    80000918:	00007797          	auipc	a5,0x7
    8000091c:	f1c78793          	add	a5,a5,-228 # 80007834 <panicking>
    80000920:	439c                	lw	a5,0(a5)
    80000922:	2781                	sext.w	a5,a5
    80000924:	cb99                	beqz	a5,8000093a <uartputc_sync+0x2e>
    80000926:	00007797          	auipc	a5,0x7
    8000092a:	f0a78793          	add	a5,a5,-246 # 80007830 <panicked>
    8000092e:	439c                	lw	a5,0(a5)
    80000930:	2781                	sext.w	a5,a5
    80000932:	10000737          	lui	a4,0x10000
    80000936:	c789                	beqz	a5,80000940 <uartputc_sync+0x34>
    80000938:	a001                	j	80000938 <uartputc_sync+0x2c>
    8000093a:	23c000ef          	jal	80000b76 <push_off>
    8000093e:	b7e5                	j	80000926 <uartputc_sync+0x1a>
    80000940:	00574783          	lbu	a5,5(a4) # 10000005 <_entry-0x6ffffffb>
    80000944:	0ff7f793          	zext.b	a5,a5
    80000948:	0207f793          	and	a5,a5,32
    8000094c:	dbf5                	beqz	a5,80000940 <uartputc_sync+0x34>
    8000094e:	0ff4f793          	zext.b	a5,s1
    80000952:	10000737          	lui	a4,0x10000
    80000956:	00f70023          	sb	a5,0(a4) # 10000000 <_entry-0x70000000>
    8000095a:	00007797          	auipc	a5,0x7
    8000095e:	eda78793          	add	a5,a5,-294 # 80007834 <panicking>
    80000962:	439c                	lw	a5,0(a5)
    80000964:	2781                	sext.w	a5,a5
    80000966:	c791                	beqz	a5,80000972 <uartputc_sync+0x66>
    80000968:	60e2                	ld	ra,24(sp)
    8000096a:	6442                	ld	s0,16(sp)
    8000096c:	64a2                	ld	s1,8(sp)
    8000096e:	6105                	add	sp,sp,32
    80000970:	8082                	ret
    80000972:	288000ef          	jal	80000bfa <pop_off>
    80000976:	bfcd                	j	80000968 <uartputc_sync+0x5c>

0000000080000978 <uartgetc>:
    80000978:	1141                	add	sp,sp,-16
    8000097a:	e422                	sd	s0,8(sp)
    8000097c:	0800                	add	s0,sp,16
    8000097e:	100007b7          	lui	a5,0x10000
    80000982:	0057c783          	lbu	a5,5(a5) # 10000005 <_entry-0x6ffffffb>
    80000986:	8b85                	and	a5,a5,1
    80000988:	cb81                	beqz	a5,80000998 <uartgetc+0x20>
    8000098a:	100007b7          	lui	a5,0x10000
    8000098e:	0007c503          	lbu	a0,0(a5) # 10000000 <_entry-0x70000000>
    80000992:	6422                	ld	s0,8(sp)
    80000994:	0141                	add	sp,sp,16
    80000996:	8082                	ret
    80000998:	557d                	li	a0,-1
    8000099a:	bfe5                	j	80000992 <uartgetc+0x1a>

000000008000099c <uartintr>:
    8000099c:	1101                	add	sp,sp,-32
    8000099e:	ec06                	sd	ra,24(sp)
    800009a0:	e822                	sd	s0,16(sp)
    800009a2:	e426                	sd	s1,8(sp)
    800009a4:	1000                	add	s0,sp,32
    800009a6:	100004b7          	lui	s1,0x10000
    800009aa:	0024c783          	lbu	a5,2(s1) # 10000002 <_entry-0x6ffffffe>
    800009ae:	0000f517          	auipc	a0,0xf
    800009b2:	f7250513          	add	a0,a0,-142 # 8000f920 <tx_lock>
    800009b6:	200000ef          	jal	80000bb6 <acquire>
    800009ba:	0054c783          	lbu	a5,5(s1)
    800009be:	0ff7f793          	zext.b	a5,a5
    800009c2:	0207f793          	and	a5,a5,32
    800009c6:	ef99                	bnez	a5,800009e4 <uartintr+0x48>
    800009c8:	0000f517          	auipc	a0,0xf
    800009cc:	f5850513          	add	a0,a0,-168 # 8000f920 <tx_lock>
    800009d0:	27e000ef          	jal	80000c4e <release>
    800009d4:	54fd                	li	s1,-1
    800009d6:	fa3ff0ef          	jal	80000978 <uartgetc>
    800009da:	02950063          	beq	a0,s1,800009fa <uartintr+0x5e>
    800009de:	8a7ff0ef          	jal	80000284 <consoleintr>
    800009e2:	bfd5                	j	800009d6 <uartintr+0x3a>
    800009e4:	00007797          	auipc	a5,0x7
    800009e8:	e407ac23          	sw	zero,-424(a5) # 8000783c <tx_busy>
    800009ec:	00007517          	auipc	a0,0x7
    800009f0:	e4c50513          	add	a0,a0,-436 # 80007838 <tx_chan>
    800009f4:	4ec010ef          	jal	80001ee0 <wakeup>
    800009f8:	bfc1                	j	800009c8 <uartintr+0x2c>
    800009fa:	60e2                	ld	ra,24(sp)
    800009fc:	6442                	ld	s0,16(sp)
    800009fe:	64a2                	ld	s1,8(sp)
    80000a00:	6105                	add	sp,sp,32
    80000a02:	8082                	ret

0000000080000a04 <kfree>:
    80000a04:	1101                	add	sp,sp,-32
    80000a06:	ec06                	sd	ra,24(sp)
    80000a08:	e822                	sd	s0,16(sp)
    80000a0a:	e426                	sd	s1,8(sp)
    80000a0c:	e04a                	sd	s2,0(sp)
    80000a0e:	1000                	add	s0,sp,32
    80000a10:	03451793          	sll	a5,a0,0x34
    80000a14:	e7a9                	bnez	a5,80000a5e <kfree+0x5a>
    80000a16:	84aa                	mv	s1,a0
    80000a18:	00020797          	auipc	a5,0x20
    80000a1c:	15078793          	add	a5,a5,336 # 80020b68 <end>
    80000a20:	02f56f63          	bltu	a0,a5,80000a5e <kfree+0x5a>
    80000a24:	47c5                	li	a5,17
    80000a26:	07ee                	sll	a5,a5,0x1b
    80000a28:	02f57b63          	bgeu	a0,a5,80000a5e <kfree+0x5a>
    80000a2c:	6605                	lui	a2,0x1
    80000a2e:	4585                	li	a1,1
    80000a30:	25a000ef          	jal	80000c8a <memset>
    80000a34:	0000f917          	auipc	s2,0xf
    80000a38:	f0490913          	add	s2,s2,-252 # 8000f938 <kmem>
    80000a3c:	854a                	mv	a0,s2
    80000a3e:	178000ef          	jal	80000bb6 <acquire>
    80000a42:	01893783          	ld	a5,24(s2)
    80000a46:	e09c                	sd	a5,0(s1)
    80000a48:	00993c23          	sd	s1,24(s2)
    80000a4c:	854a                	mv	a0,s2
    80000a4e:	200000ef          	jal	80000c4e <release>
    80000a52:	60e2                	ld	ra,24(sp)
    80000a54:	6442                	ld	s0,16(sp)
    80000a56:	64a2                	ld	s1,8(sp)
    80000a58:	6902                	ld	s2,0(sp)
    80000a5a:	6105                	add	sp,sp,32
    80000a5c:	8082                	ret
    80000a5e:	00006517          	auipc	a0,0x6
    80000a62:	5fa50513          	add	a0,a0,1530 # 80007058 <digits+0x40>
    80000a66:	d5dff0ef          	jal	800007c2 <panic>

0000000080000a6a <freerange>:
    80000a6a:	7179                	add	sp,sp,-48
    80000a6c:	f406                	sd	ra,40(sp)
    80000a6e:	f022                	sd	s0,32(sp)
    80000a70:	ec26                	sd	s1,24(sp)
    80000a72:	e84a                	sd	s2,16(sp)
    80000a74:	e44e                	sd	s3,8(sp)
    80000a76:	e052                	sd	s4,0(sp)
    80000a78:	1800                	add	s0,sp,48
    80000a7a:	6705                	lui	a4,0x1
    80000a7c:	fff70793          	add	a5,a4,-1 # fff <_entry-0x7ffff001>
    80000a80:	00f504b3          	add	s1,a0,a5
    80000a84:	77fd                	lui	a5,0xfffff
    80000a86:	8cfd                	and	s1,s1,a5
    80000a88:	94ba                	add	s1,s1,a4
    80000a8a:	0095ec63          	bltu	a1,s1,80000aa2 <freerange+0x38>
    80000a8e:	892e                	mv	s2,a1
    80000a90:	7a7d                	lui	s4,0xfffff
    80000a92:	6985                	lui	s3,0x1
    80000a94:	01448533          	add	a0,s1,s4
    80000a98:	f6dff0ef          	jal	80000a04 <kfree>
    80000a9c:	94ce                	add	s1,s1,s3
    80000a9e:	fe997be3          	bgeu	s2,s1,80000a94 <freerange+0x2a>
    80000aa2:	70a2                	ld	ra,40(sp)
    80000aa4:	7402                	ld	s0,32(sp)
    80000aa6:	64e2                	ld	s1,24(sp)
    80000aa8:	6942                	ld	s2,16(sp)
    80000aaa:	69a2                	ld	s3,8(sp)
    80000aac:	6a02                	ld	s4,0(sp)
    80000aae:	6145                	add	sp,sp,48
    80000ab0:	8082                	ret

0000000080000ab2 <kinit>:
    80000ab2:	1141                	add	sp,sp,-16
    80000ab4:	e406                	sd	ra,8(sp)
    80000ab6:	e022                	sd	s0,0(sp)
    80000ab8:	0800                	add	s0,sp,16
    80000aba:	00006597          	auipc	a1,0x6
    80000abe:	5a658593          	add	a1,a1,1446 # 80007060 <digits+0x48>
    80000ac2:	0000f517          	auipc	a0,0xf
    80000ac6:	e7650513          	add	a0,a0,-394 # 8000f938 <kmem>
    80000aca:	06c000ef          	jal	80000b36 <initlock>
    80000ace:	45c5                	li	a1,17
    80000ad0:	05ee                	sll	a1,a1,0x1b
    80000ad2:	00020517          	auipc	a0,0x20
    80000ad6:	09650513          	add	a0,a0,150 # 80020b68 <end>
    80000ada:	f91ff0ef          	jal	80000a6a <freerange>
    80000ade:	60a2                	ld	ra,8(sp)
    80000ae0:	6402                	ld	s0,0(sp)
    80000ae2:	0141                	add	sp,sp,16
    80000ae4:	8082                	ret

0000000080000ae6 <kalloc>:
    80000ae6:	1101                	add	sp,sp,-32
    80000ae8:	ec06                	sd	ra,24(sp)
    80000aea:	e822                	sd	s0,16(sp)
    80000aec:	e426                	sd	s1,8(sp)
    80000aee:	1000                	add	s0,sp,32
    80000af0:	0000f497          	auipc	s1,0xf
    80000af4:	e4848493          	add	s1,s1,-440 # 8000f938 <kmem>
    80000af8:	8526                	mv	a0,s1
    80000afa:	0bc000ef          	jal	80000bb6 <acquire>
    80000afe:	6c84                	ld	s1,24(s1)
    80000b00:	c485                	beqz	s1,80000b28 <kalloc+0x42>
    80000b02:	609c                	ld	a5,0(s1)
    80000b04:	0000f517          	auipc	a0,0xf
    80000b08:	e3450513          	add	a0,a0,-460 # 8000f938 <kmem>
    80000b0c:	ed1c                	sd	a5,24(a0)
    80000b0e:	140000ef          	jal	80000c4e <release>
    80000b12:	6605                	lui	a2,0x1
    80000b14:	4595                	li	a1,5
    80000b16:	8526                	mv	a0,s1
    80000b18:	172000ef          	jal	80000c8a <memset>
    80000b1c:	8526                	mv	a0,s1
    80000b1e:	60e2                	ld	ra,24(sp)
    80000b20:	6442                	ld	s0,16(sp)
    80000b22:	64a2                	ld	s1,8(sp)
    80000b24:	6105                	add	sp,sp,32
    80000b26:	8082                	ret
    80000b28:	0000f517          	auipc	a0,0xf
    80000b2c:	e1050513          	add	a0,a0,-496 # 8000f938 <kmem>
    80000b30:	11e000ef          	jal	80000c4e <release>
    80000b34:	b7e5                	j	80000b1c <kalloc+0x36>

0000000080000b36 <initlock>:
    80000b36:	1141                	add	sp,sp,-16
    80000b38:	e422                	sd	s0,8(sp)
    80000b3a:	0800                	add	s0,sp,16
    80000b3c:	e50c                	sd	a1,8(a0)
    80000b3e:	00052023          	sw	zero,0(a0)
    80000b42:	00053823          	sd	zero,16(a0)
    80000b46:	6422                	ld	s0,8(sp)
    80000b48:	0141                	add	sp,sp,16
    80000b4a:	8082                	ret

0000000080000b4c <holding>:
    80000b4c:	411c                	lw	a5,0(a0)
    80000b4e:	e399                	bnez	a5,80000b54 <holding+0x8>
    80000b50:	4501                	li	a0,0
    80000b52:	8082                	ret
    80000b54:	1101                	add	sp,sp,-32
    80000b56:	ec06                	sd	ra,24(sp)
    80000b58:	e822                	sd	s0,16(sp)
    80000b5a:	e426                	sd	s1,8(sp)
    80000b5c:	1000                	add	s0,sp,32
    80000b5e:	6904                	ld	s1,16(a0)
    80000b60:	511000ef          	jal	80001870 <mycpu>
    80000b64:	40a48533          	sub	a0,s1,a0
    80000b68:	00153513          	seqz	a0,a0
    80000b6c:	60e2                	ld	ra,24(sp)
    80000b6e:	6442                	ld	s0,16(sp)
    80000b70:	64a2                	ld	s1,8(sp)
    80000b72:	6105                	add	sp,sp,32
    80000b74:	8082                	ret

0000000080000b76 <push_off>:
    80000b76:	1101                	add	sp,sp,-32
    80000b78:	ec06                	sd	ra,24(sp)
    80000b7a:	e822                	sd	s0,16(sp)
    80000b7c:	e426                	sd	s1,8(sp)
    80000b7e:	1000                	add	s0,sp,32
    80000b80:	100024f3          	csrr	s1,sstatus
    80000b84:	100027f3          	csrr	a5,sstatus
    80000b88:	9bf5                	and	a5,a5,-3
    80000b8a:	10079073          	csrw	sstatus,a5
    80000b8e:	4e3000ef          	jal	80001870 <mycpu>
    80000b92:	5d3c                	lw	a5,120(a0)
    80000b94:	cb99                	beqz	a5,80000baa <push_off+0x34>
    80000b96:	4db000ef          	jal	80001870 <mycpu>
    80000b9a:	5d3c                	lw	a5,120(a0)
    80000b9c:	2785                	addw	a5,a5,1 # fffffffffffff001 <end+0xffffffff7ffde499>
    80000b9e:	dd3c                	sw	a5,120(a0)
    80000ba0:	60e2                	ld	ra,24(sp)
    80000ba2:	6442                	ld	s0,16(sp)
    80000ba4:	64a2                	ld	s1,8(sp)
    80000ba6:	6105                	add	sp,sp,32
    80000ba8:	8082                	ret
    80000baa:	4c7000ef          	jal	80001870 <mycpu>
    80000bae:	8085                	srl	s1,s1,0x1
    80000bb0:	8885                	and	s1,s1,1
    80000bb2:	dd64                	sw	s1,124(a0)
    80000bb4:	b7cd                	j	80000b96 <push_off+0x20>

0000000080000bb6 <acquire>:
    80000bb6:	1101                	add	sp,sp,-32
    80000bb8:	ec06                	sd	ra,24(sp)
    80000bba:	e822                	sd	s0,16(sp)
    80000bbc:	e426                	sd	s1,8(sp)
    80000bbe:	1000                	add	s0,sp,32
    80000bc0:	84aa                	mv	s1,a0
    80000bc2:	fb5ff0ef          	jal	80000b76 <push_off>
    80000bc6:	8526                	mv	a0,s1
    80000bc8:	f85ff0ef          	jal	80000b4c <holding>
    80000bcc:	4705                	li	a4,1
    80000bce:	e105                	bnez	a0,80000bee <acquire+0x38>
    80000bd0:	87ba                	mv	a5,a4
    80000bd2:	0cf4a7af          	amoswap.w.aq	a5,a5,(s1)
    80000bd6:	2781                	sext.w	a5,a5
    80000bd8:	ffe5                	bnez	a5,80000bd0 <acquire+0x1a>
    80000bda:	0ff0000f          	fence
    80000bde:	493000ef          	jal	80001870 <mycpu>
    80000be2:	e888                	sd	a0,16(s1)
    80000be4:	60e2                	ld	ra,24(sp)
    80000be6:	6442                	ld	s0,16(sp)
    80000be8:	64a2                	ld	s1,8(sp)
    80000bea:	6105                	add	sp,sp,32
    80000bec:	8082                	ret
    80000bee:	00006517          	auipc	a0,0x6
    80000bf2:	47a50513          	add	a0,a0,1146 # 80007068 <digits+0x50>
    80000bf6:	bcdff0ef          	jal	800007c2 <panic>

0000000080000bfa <pop_off>:
    80000bfa:	1141                	add	sp,sp,-16
    80000bfc:	e406                	sd	ra,8(sp)
    80000bfe:	e022                	sd	s0,0(sp)
    80000c00:	0800                	add	s0,sp,16
    80000c02:	46f000ef          	jal	80001870 <mycpu>
    80000c06:	100027f3          	csrr	a5,sstatus
    80000c0a:	8b89                	and	a5,a5,2
    80000c0c:	e78d                	bnez	a5,80000c36 <pop_off+0x3c>
    80000c0e:	5d3c                	lw	a5,120(a0)
    80000c10:	02f05963          	blez	a5,80000c42 <pop_off+0x48>
    80000c14:	37fd                	addw	a5,a5,-1
    80000c16:	0007871b          	sext.w	a4,a5
    80000c1a:	dd3c                	sw	a5,120(a0)
    80000c1c:	eb09                	bnez	a4,80000c2e <pop_off+0x34>
    80000c1e:	5d7c                	lw	a5,124(a0)
    80000c20:	c799                	beqz	a5,80000c2e <pop_off+0x34>
    80000c22:	100027f3          	csrr	a5,sstatus
    80000c26:	0027e793          	or	a5,a5,2
    80000c2a:	10079073          	csrw	sstatus,a5
    80000c2e:	60a2                	ld	ra,8(sp)
    80000c30:	6402                	ld	s0,0(sp)
    80000c32:	0141                	add	sp,sp,16
    80000c34:	8082                	ret
    80000c36:	00006517          	auipc	a0,0x6
    80000c3a:	43a50513          	add	a0,a0,1082 # 80007070 <digits+0x58>
    80000c3e:	b85ff0ef          	jal	800007c2 <panic>
    80000c42:	00006517          	auipc	a0,0x6
    80000c46:	44650513          	add	a0,a0,1094 # 80007088 <digits+0x70>
    80000c4a:	b79ff0ef          	jal	800007c2 <panic>

0000000080000c4e <release>:
    80000c4e:	1101                	add	sp,sp,-32
    80000c50:	ec06                	sd	ra,24(sp)
    80000c52:	e822                	sd	s0,16(sp)
    80000c54:	e426                	sd	s1,8(sp)
    80000c56:	1000                	add	s0,sp,32
    80000c58:	84aa                	mv	s1,a0
    80000c5a:	ef3ff0ef          	jal	80000b4c <holding>
    80000c5e:	c105                	beqz	a0,80000c7e <release+0x30>
    80000c60:	0004b823          	sd	zero,16(s1)
    80000c64:	0ff0000f          	fence
    80000c68:	0f50000f          	fence	iorw,ow
    80000c6c:	0804a02f          	amoswap.w	zero,zero,(s1)
    80000c70:	f8bff0ef          	jal	80000bfa <pop_off>
    80000c74:	60e2                	ld	ra,24(sp)
    80000c76:	6442                	ld	s0,16(sp)
    80000c78:	64a2                	ld	s1,8(sp)
    80000c7a:	6105                	add	sp,sp,32
    80000c7c:	8082                	ret
    80000c7e:	00006517          	auipc	a0,0x6
    80000c82:	41250513          	add	a0,a0,1042 # 80007090 <digits+0x78>
    80000c86:	b3dff0ef          	jal	800007c2 <panic>

0000000080000c8a <memset>:
    80000c8a:	1141                	add	sp,sp,-16
    80000c8c:	e422                	sd	s0,8(sp)
    80000c8e:	0800                	add	s0,sp,16
    80000c90:	ce09                	beqz	a2,80000caa <memset+0x20>
    80000c92:	87aa                	mv	a5,a0
    80000c94:	fff6071b          	addw	a4,a2,-1 # fff <_entry-0x7ffff001>
    80000c98:	1702                	sll	a4,a4,0x20
    80000c9a:	9301                	srl	a4,a4,0x20
    80000c9c:	0705                	add	a4,a4,1
    80000c9e:	972a                	add	a4,a4,a0
    80000ca0:	00b78023          	sb	a1,0(a5)
    80000ca4:	0785                	add	a5,a5,1
    80000ca6:	fee79de3          	bne	a5,a4,80000ca0 <memset+0x16>
    80000caa:	6422                	ld	s0,8(sp)
    80000cac:	0141                	add	sp,sp,16
    80000cae:	8082                	ret

0000000080000cb0 <memcmp>:
    80000cb0:	1141                	add	sp,sp,-16
    80000cb2:	e422                	sd	s0,8(sp)
    80000cb4:	0800                	add	s0,sp,16
    80000cb6:	ce15                	beqz	a2,80000cf2 <memcmp+0x42>
    80000cb8:	fff6069b          	addw	a3,a2,-1
    80000cbc:	00054783          	lbu	a5,0(a0)
    80000cc0:	0005c703          	lbu	a4,0(a1)
    80000cc4:	02e79063          	bne	a5,a4,80000ce4 <memcmp+0x34>
    80000cc8:	1682                	sll	a3,a3,0x20
    80000cca:	9281                	srl	a3,a3,0x20
    80000ccc:	0685                	add	a3,a3,1
    80000cce:	96aa                	add	a3,a3,a0
    80000cd0:	0505                	add	a0,a0,1
    80000cd2:	0585                	add	a1,a1,1
    80000cd4:	00d50d63          	beq	a0,a3,80000cee <memcmp+0x3e>
    80000cd8:	00054783          	lbu	a5,0(a0)
    80000cdc:	0005c703          	lbu	a4,0(a1)
    80000ce0:	fee788e3          	beq	a5,a4,80000cd0 <memcmp+0x20>
    80000ce4:	40e7853b          	subw	a0,a5,a4
    80000ce8:	6422                	ld	s0,8(sp)
    80000cea:	0141                	add	sp,sp,16
    80000cec:	8082                	ret
    80000cee:	4501                	li	a0,0
    80000cf0:	bfe5                	j	80000ce8 <memcmp+0x38>
    80000cf2:	4501                	li	a0,0
    80000cf4:	bfd5                	j	80000ce8 <memcmp+0x38>

0000000080000cf6 <memmove>:
    80000cf6:	1141                	add	sp,sp,-16
    80000cf8:	e422                	sd	s0,8(sp)
    80000cfa:	0800                	add	s0,sp,16
    80000cfc:	c215                	beqz	a2,80000d20 <memmove+0x2a>
    80000cfe:	02a5e463          	bltu	a1,a0,80000d26 <memmove+0x30>
    80000d02:	fff6079b          	addw	a5,a2,-1
    80000d06:	1782                	sll	a5,a5,0x20
    80000d08:	9381                	srl	a5,a5,0x20
    80000d0a:	0785                	add	a5,a5,1
    80000d0c:	97ae                	add	a5,a5,a1
    80000d0e:	872a                	mv	a4,a0
    80000d10:	0585                	add	a1,a1,1
    80000d12:	0705                	add	a4,a4,1
    80000d14:	fff5c683          	lbu	a3,-1(a1)
    80000d18:	fed70fa3          	sb	a3,-1(a4)
    80000d1c:	fef59ae3          	bne	a1,a5,80000d10 <memmove+0x1a>
    80000d20:	6422                	ld	s0,8(sp)
    80000d22:	0141                	add	sp,sp,16
    80000d24:	8082                	ret
    80000d26:	02061693          	sll	a3,a2,0x20
    80000d2a:	9281                	srl	a3,a3,0x20
    80000d2c:	00d58733          	add	a4,a1,a3
    80000d30:	fce579e3          	bgeu	a0,a4,80000d02 <memmove+0xc>
    80000d34:	96aa                	add	a3,a3,a0
    80000d36:	fff6079b          	addw	a5,a2,-1
    80000d3a:	1782                	sll	a5,a5,0x20
    80000d3c:	9381                	srl	a5,a5,0x20
    80000d3e:	fff7c793          	not	a5,a5
    80000d42:	97ba                	add	a5,a5,a4
    80000d44:	177d                	add	a4,a4,-1
    80000d46:	16fd                	add	a3,a3,-1
    80000d48:	00074603          	lbu	a2,0(a4)
    80000d4c:	00c68023          	sb	a2,0(a3)
    80000d50:	fee79ae3          	bne	a5,a4,80000d44 <memmove+0x4e>
    80000d54:	b7f1                	j	80000d20 <memmove+0x2a>

0000000080000d56 <memcpy>:
    80000d56:	1141                	add	sp,sp,-16
    80000d58:	e406                	sd	ra,8(sp)
    80000d5a:	e022                	sd	s0,0(sp)
    80000d5c:	0800                	add	s0,sp,16
    80000d5e:	f99ff0ef          	jal	80000cf6 <memmove>
    80000d62:	60a2                	ld	ra,8(sp)
    80000d64:	6402                	ld	s0,0(sp)
    80000d66:	0141                	add	sp,sp,16
    80000d68:	8082                	ret

0000000080000d6a <strncmp>:
    80000d6a:	1141                	add	sp,sp,-16
    80000d6c:	e422                	sd	s0,8(sp)
    80000d6e:	0800                	add	s0,sp,16
    80000d70:	c229                	beqz	a2,80000db2 <strncmp+0x48>
    80000d72:	00054783          	lbu	a5,0(a0)
    80000d76:	c795                	beqz	a5,80000da2 <strncmp+0x38>
    80000d78:	0005c703          	lbu	a4,0(a1)
    80000d7c:	02f71363          	bne	a4,a5,80000da2 <strncmp+0x38>
    80000d80:	fff6071b          	addw	a4,a2,-1
    80000d84:	1702                	sll	a4,a4,0x20
    80000d86:	9301                	srl	a4,a4,0x20
    80000d88:	0705                	add	a4,a4,1
    80000d8a:	972a                	add	a4,a4,a0
    80000d8c:	0505                	add	a0,a0,1
    80000d8e:	0585                	add	a1,a1,1
    80000d90:	02e50363          	beq	a0,a4,80000db6 <strncmp+0x4c>
    80000d94:	00054783          	lbu	a5,0(a0)
    80000d98:	c789                	beqz	a5,80000da2 <strncmp+0x38>
    80000d9a:	0005c683          	lbu	a3,0(a1)
    80000d9e:	fef687e3          	beq	a3,a5,80000d8c <strncmp+0x22>
    80000da2:	00054503          	lbu	a0,0(a0)
    80000da6:	0005c783          	lbu	a5,0(a1)
    80000daa:	9d1d                	subw	a0,a0,a5
    80000dac:	6422                	ld	s0,8(sp)
    80000dae:	0141                	add	sp,sp,16
    80000db0:	8082                	ret
    80000db2:	4501                	li	a0,0
    80000db4:	bfe5                	j	80000dac <strncmp+0x42>
    80000db6:	4501                	li	a0,0
    80000db8:	bfd5                	j	80000dac <strncmp+0x42>

0000000080000dba <strncpy>:
    80000dba:	1141                	add	sp,sp,-16
    80000dbc:	e422                	sd	s0,8(sp)
    80000dbe:	0800                	add	s0,sp,16
    80000dc0:	872a                	mv	a4,a0
    80000dc2:	a011                	j	80000dc6 <strncpy+0xc>
    80000dc4:	8642                	mv	a2,a6
    80000dc6:	fff6081b          	addw	a6,a2,-1
    80000dca:	00c05963          	blez	a2,80000ddc <strncpy+0x22>
    80000dce:	0705                	add	a4,a4,1
    80000dd0:	0005c783          	lbu	a5,0(a1)
    80000dd4:	fef70fa3          	sb	a5,-1(a4)
    80000dd8:	0585                	add	a1,a1,1
    80000dda:	f7ed                	bnez	a5,80000dc4 <strncpy+0xa>
    80000ddc:	86ba                	mv	a3,a4
    80000dde:	01005b63          	blez	a6,80000df4 <strncpy+0x3a>
    80000de2:	0685                	add	a3,a3,1
    80000de4:	fe068fa3          	sb	zero,-1(a3)
    80000de8:	fff6c793          	not	a5,a3
    80000dec:	9fb9                	addw	a5,a5,a4
    80000dee:	9fb1                	addw	a5,a5,a2
    80000df0:	fef049e3          	bgtz	a5,80000de2 <strncpy+0x28>
    80000df4:	6422                	ld	s0,8(sp)
    80000df6:	0141                	add	sp,sp,16
    80000df8:	8082                	ret

0000000080000dfa <safestrcpy>:
    80000dfa:	1141                	add	sp,sp,-16
    80000dfc:	e422                	sd	s0,8(sp)
    80000dfe:	0800                	add	s0,sp,16
    80000e00:	02c05363          	blez	a2,80000e26 <safestrcpy+0x2c>
    80000e04:	fff6069b          	addw	a3,a2,-1
    80000e08:	1682                	sll	a3,a3,0x20
    80000e0a:	9281                	srl	a3,a3,0x20
    80000e0c:	96ae                	add	a3,a3,a1
    80000e0e:	87aa                	mv	a5,a0
    80000e10:	00d58963          	beq	a1,a3,80000e22 <safestrcpy+0x28>
    80000e14:	0585                	add	a1,a1,1
    80000e16:	0785                	add	a5,a5,1
    80000e18:	fff5c703          	lbu	a4,-1(a1)
    80000e1c:	fee78fa3          	sb	a4,-1(a5)
    80000e20:	fb65                	bnez	a4,80000e10 <safestrcpy+0x16>
    80000e22:	00078023          	sb	zero,0(a5)
    80000e26:	6422                	ld	s0,8(sp)
    80000e28:	0141                	add	sp,sp,16
    80000e2a:	8082                	ret

0000000080000e2c <strlen>:
    80000e2c:	1141                	add	sp,sp,-16
    80000e2e:	e422                	sd	s0,8(sp)
    80000e30:	0800                	add	s0,sp,16
    80000e32:	00054783          	lbu	a5,0(a0)
    80000e36:	cf91                	beqz	a5,80000e52 <strlen+0x26>
    80000e38:	0505                	add	a0,a0,1
    80000e3a:	87aa                	mv	a5,a0
    80000e3c:	4685                	li	a3,1
    80000e3e:	9e89                	subw	a3,a3,a0
    80000e40:	00f6853b          	addw	a0,a3,a5
    80000e44:	0785                	add	a5,a5,1
    80000e46:	fff7c703          	lbu	a4,-1(a5)
    80000e4a:	fb7d                	bnez	a4,80000e40 <strlen+0x14>
    80000e4c:	6422                	ld	s0,8(sp)
    80000e4e:	0141                	add	sp,sp,16
    80000e50:	8082                	ret
    80000e52:	4501                	li	a0,0
    80000e54:	bfe5                	j	80000e4c <strlen+0x20>

0000000080000e56 <main>:
    80000e56:	1141                	add	sp,sp,-16
    80000e58:	e406                	sd	ra,8(sp)
    80000e5a:	e022                	sd	s0,0(sp)
    80000e5c:	0800                	add	s0,sp,16
    80000e5e:	203000ef          	jal	80001860 <cpuid>
    80000e62:	00007717          	auipc	a4,0x7
    80000e66:	9de70713          	add	a4,a4,-1570 # 80007840 <started>
    80000e6a:	c51d                	beqz	a0,80000e98 <main+0x42>
    80000e6c:	431c                	lw	a5,0(a4)
    80000e6e:	2781                	sext.w	a5,a5
    80000e70:	dff5                	beqz	a5,80000e6c <main+0x16>
    80000e72:	0ff0000f          	fence
    80000e76:	1eb000ef          	jal	80001860 <cpuid>
    80000e7a:	85aa                	mv	a1,a0
    80000e7c:	00006517          	auipc	a0,0x6
    80000e80:	23450513          	add	a0,a0,564 # 800070b0 <digits+0x98>
    80000e84:	e70ff0ef          	jal	800004f4 <printf>
    80000e88:	080000ef          	jal	80000f08 <kvminithart>
    80000e8c:	52c010ef          	jal	800023b8 <trapinithart>
    80000e90:	4c4040ef          	jal	80005354 <plicinithart>
    80000e94:	667000ef          	jal	80001cfa <scheduler>
    80000e98:	d80ff0ef          	jal	80000418 <consoleinit>
    80000e9c:	963ff0ef          	jal	800007fe <printfinit>
    80000ea0:	00006517          	auipc	a0,0x6
    80000ea4:	22050513          	add	a0,a0,544 # 800070c0 <digits+0xa8>
    80000ea8:	e4cff0ef          	jal	800004f4 <printf>
    80000eac:	00006517          	auipc	a0,0x6
    80000eb0:	1ec50513          	add	a0,a0,492 # 80007098 <digits+0x80>
    80000eb4:	e40ff0ef          	jal	800004f4 <printf>
    80000eb8:	00006517          	auipc	a0,0x6
    80000ebc:	20850513          	add	a0,a0,520 # 800070c0 <digits+0xa8>
    80000ec0:	e34ff0ef          	jal	800004f4 <printf>
    80000ec4:	befff0ef          	jal	80000ab2 <kinit>
    80000ec8:	2cc000ef          	jal	80001194 <kvminit>
    80000ecc:	03c000ef          	jal	80000f08 <kvminithart>
    80000ed0:	0e9000ef          	jal	800017b8 <procinit>
    80000ed4:	4c0010ef          	jal	80002394 <trapinit>
    80000ed8:	4e0010ef          	jal	800023b8 <trapinithart>
    80000edc:	462040ef          	jal	8000533e <plicinit>
    80000ee0:	474040ef          	jal	80005354 <plicinithart>
    80000ee4:	369010ef          	jal	80002a4c <binit>
    80000ee8:	10e020ef          	jal	80002ff6 <iinit>
    80000eec:	01e030ef          	jal	80003f0a <fileinit>
    80000ef0:	554040ef          	jal	80005444 <virtio_disk_init>
    80000ef4:	461000ef          	jal	80001b54 <userinit>
    80000ef8:	0ff0000f          	fence
    80000efc:	4785                	li	a5,1
    80000efe:	00007717          	auipc	a4,0x7
    80000f02:	94f72123          	sw	a5,-1726(a4) # 80007840 <started>
    80000f06:	b779                	j	80000e94 <main+0x3e>

0000000080000f08 <kvminithart>:
    80000f08:	1141                	add	sp,sp,-16
    80000f0a:	e422                	sd	s0,8(sp)
    80000f0c:	0800                	add	s0,sp,16
    80000f0e:	12000073          	sfence.vma
    80000f12:	00007797          	auipc	a5,0x7
    80000f16:	93678793          	add	a5,a5,-1738 # 80007848 <kernel_pagetable>
    80000f1a:	639c                	ld	a5,0(a5)
    80000f1c:	83b1                	srl	a5,a5,0xc
    80000f1e:	577d                	li	a4,-1
    80000f20:	177e                	sll	a4,a4,0x3f
    80000f22:	8fd9                	or	a5,a5,a4
    80000f24:	18079073          	csrw	satp,a5
    80000f28:	12000073          	sfence.vma
    80000f2c:	6422                	ld	s0,8(sp)
    80000f2e:	0141                	add	sp,sp,16
    80000f30:	8082                	ret

0000000080000f32 <walk>:
    80000f32:	7139                	add	sp,sp,-64
    80000f34:	fc06                	sd	ra,56(sp)
    80000f36:	f822                	sd	s0,48(sp)
    80000f38:	f426                	sd	s1,40(sp)
    80000f3a:	f04a                	sd	s2,32(sp)
    80000f3c:	ec4e                	sd	s3,24(sp)
    80000f3e:	e852                	sd	s4,16(sp)
    80000f40:	e456                	sd	s5,8(sp)
    80000f42:	e05a                	sd	s6,0(sp)
    80000f44:	0080                	add	s0,sp,64
    80000f46:	84aa                	mv	s1,a0
    80000f48:	89ae                	mv	s3,a1
    80000f4a:	8b32                	mv	s6,a2
    80000f4c:	57fd                	li	a5,-1
    80000f4e:	83e9                	srl	a5,a5,0x1a
    80000f50:	4a79                	li	s4,30
    80000f52:	4ab1                	li	s5,12
    80000f54:	02b7fc63          	bgeu	a5,a1,80000f8c <walk+0x5a>
    80000f58:	00006517          	auipc	a0,0x6
    80000f5c:	17050513          	add	a0,a0,368 # 800070c8 <digits+0xb0>
    80000f60:	863ff0ef          	jal	800007c2 <panic>
    80000f64:	060b0263          	beqz	s6,80000fc8 <walk+0x96>
    80000f68:	b7fff0ef          	jal	80000ae6 <kalloc>
    80000f6c:	84aa                	mv	s1,a0
    80000f6e:	c139                	beqz	a0,80000fb4 <walk+0x82>
    80000f70:	6605                	lui	a2,0x1
    80000f72:	4581                	li	a1,0
    80000f74:	d17ff0ef          	jal	80000c8a <memset>
    80000f78:	00c4d793          	srl	a5,s1,0xc
    80000f7c:	07aa                	sll	a5,a5,0xa
    80000f7e:	0017e793          	or	a5,a5,1
    80000f82:	00f93023          	sd	a5,0(s2)
    80000f86:	3a5d                	addw	s4,s4,-9 # ffffffffffffeff7 <end+0xffffffff7ffde48f>
    80000f88:	035a0063          	beq	s4,s5,80000fa8 <walk+0x76>
    80000f8c:	0149d933          	srl	s2,s3,s4
    80000f90:	1ff97913          	and	s2,s2,511
    80000f94:	090e                	sll	s2,s2,0x3
    80000f96:	9926                	add	s2,s2,s1
    80000f98:	00093483          	ld	s1,0(s2)
    80000f9c:	0014f793          	and	a5,s1,1
    80000fa0:	d3f1                	beqz	a5,80000f64 <walk+0x32>
    80000fa2:	80a9                	srl	s1,s1,0xa
    80000fa4:	04b2                	sll	s1,s1,0xc
    80000fa6:	b7c5                	j	80000f86 <walk+0x54>
    80000fa8:	00c9d513          	srl	a0,s3,0xc
    80000fac:	1ff57513          	and	a0,a0,511
    80000fb0:	050e                	sll	a0,a0,0x3
    80000fb2:	9526                	add	a0,a0,s1
    80000fb4:	70e2                	ld	ra,56(sp)
    80000fb6:	7442                	ld	s0,48(sp)
    80000fb8:	74a2                	ld	s1,40(sp)
    80000fba:	7902                	ld	s2,32(sp)
    80000fbc:	69e2                	ld	s3,24(sp)
    80000fbe:	6a42                	ld	s4,16(sp)
    80000fc0:	6aa2                	ld	s5,8(sp)
    80000fc2:	6b02                	ld	s6,0(sp)
    80000fc4:	6121                	add	sp,sp,64
    80000fc6:	8082                	ret
    80000fc8:	4501                	li	a0,0
    80000fca:	b7ed                	j	80000fb4 <walk+0x82>

0000000080000fcc <walkaddr>:
    80000fcc:	57fd                	li	a5,-1
    80000fce:	83e9                	srl	a5,a5,0x1a
    80000fd0:	00b7f463          	bgeu	a5,a1,80000fd8 <walkaddr+0xc>
    80000fd4:	4501                	li	a0,0
    80000fd6:	8082                	ret
    80000fd8:	1141                	add	sp,sp,-16
    80000fda:	e406                	sd	ra,8(sp)
    80000fdc:	e022                	sd	s0,0(sp)
    80000fde:	0800                	add	s0,sp,16
    80000fe0:	4601                	li	a2,0
    80000fe2:	f51ff0ef          	jal	80000f32 <walk>
    80000fe6:	c105                	beqz	a0,80001006 <walkaddr+0x3a>
    80000fe8:	611c                	ld	a5,0(a0)
    80000fea:	0117f693          	and	a3,a5,17
    80000fee:	4745                	li	a4,17
    80000ff0:	4501                	li	a0,0
    80000ff2:	00e68663          	beq	a3,a4,80000ffe <walkaddr+0x32>
    80000ff6:	60a2                	ld	ra,8(sp)
    80000ff8:	6402                	ld	s0,0(sp)
    80000ffa:	0141                	add	sp,sp,16
    80000ffc:	8082                	ret
    80000ffe:	00a7d513          	srl	a0,a5,0xa
    80001002:	0532                	sll	a0,a0,0xc
    80001004:	bfcd                	j	80000ff6 <walkaddr+0x2a>
    80001006:	4501                	li	a0,0
    80001008:	b7fd                	j	80000ff6 <walkaddr+0x2a>

000000008000100a <mappages>:
    8000100a:	715d                	add	sp,sp,-80
    8000100c:	e486                	sd	ra,72(sp)
    8000100e:	e0a2                	sd	s0,64(sp)
    80001010:	fc26                	sd	s1,56(sp)
    80001012:	f84a                	sd	s2,48(sp)
    80001014:	f44e                	sd	s3,40(sp)
    80001016:	f052                	sd	s4,32(sp)
    80001018:	ec56                	sd	s5,24(sp)
    8000101a:	e85a                	sd	s6,16(sp)
    8000101c:	e45e                	sd	s7,8(sp)
    8000101e:	0880                	add	s0,sp,80
    80001020:	03459793          	sll	a5,a1,0x34
    80001024:	e385                	bnez	a5,80001044 <mappages+0x3a>
    80001026:	8aaa                	mv	s5,a0
    80001028:	8b3a                	mv	s6,a4
    8000102a:	03461793          	sll	a5,a2,0x34
    8000102e:	e38d                	bnez	a5,80001050 <mappages+0x46>
    80001030:	c615                	beqz	a2,8000105c <mappages+0x52>
    80001032:	79fd                	lui	s3,0xfffff
    80001034:	964e                	add	a2,a2,s3
    80001036:	00b609b3          	add	s3,a2,a1
    8000103a:	892e                	mv	s2,a1
    8000103c:	40b68a33          	sub	s4,a3,a1
    80001040:	6b85                	lui	s7,0x1
    80001042:	a815                	j	80001076 <mappages+0x6c>
    80001044:	00006517          	auipc	a0,0x6
    80001048:	08c50513          	add	a0,a0,140 # 800070d0 <digits+0xb8>
    8000104c:	f76ff0ef          	jal	800007c2 <panic>
    80001050:	00006517          	auipc	a0,0x6
    80001054:	0a050513          	add	a0,a0,160 # 800070f0 <digits+0xd8>
    80001058:	f6aff0ef          	jal	800007c2 <panic>
    8000105c:	00006517          	auipc	a0,0x6
    80001060:	0b450513          	add	a0,a0,180 # 80007110 <digits+0xf8>
    80001064:	f5eff0ef          	jal	800007c2 <panic>
    80001068:	00006517          	auipc	a0,0x6
    8000106c:	0b850513          	add	a0,a0,184 # 80007120 <digits+0x108>
    80001070:	f52ff0ef          	jal	800007c2 <panic>
    80001074:	995e                	add	s2,s2,s7
    80001076:	012a04b3          	add	s1,s4,s2
    8000107a:	4605                	li	a2,1
    8000107c:	85ca                	mv	a1,s2
    8000107e:	8556                	mv	a0,s5
    80001080:	eb3ff0ef          	jal	80000f32 <walk>
    80001084:	cd19                	beqz	a0,800010a2 <mappages+0x98>
    80001086:	611c                	ld	a5,0(a0)
    80001088:	8b85                	and	a5,a5,1
    8000108a:	fff9                	bnez	a5,80001068 <mappages+0x5e>
    8000108c:	80b1                	srl	s1,s1,0xc
    8000108e:	04aa                	sll	s1,s1,0xa
    80001090:	0164e4b3          	or	s1,s1,s6
    80001094:	0014e493          	or	s1,s1,1
    80001098:	e104                	sd	s1,0(a0)
    8000109a:	fd391de3          	bne	s2,s3,80001074 <mappages+0x6a>
    8000109e:	4501                	li	a0,0
    800010a0:	a011                	j	800010a4 <mappages+0x9a>
    800010a2:	557d                	li	a0,-1
    800010a4:	60a6                	ld	ra,72(sp)
    800010a6:	6406                	ld	s0,64(sp)
    800010a8:	74e2                	ld	s1,56(sp)
    800010aa:	7942                	ld	s2,48(sp)
    800010ac:	79a2                	ld	s3,40(sp)
    800010ae:	7a02                	ld	s4,32(sp)
    800010b0:	6ae2                	ld	s5,24(sp)
    800010b2:	6b42                	ld	s6,16(sp)
    800010b4:	6ba2                	ld	s7,8(sp)
    800010b6:	6161                	add	sp,sp,80
    800010b8:	8082                	ret

00000000800010ba <kvmmap>:
    800010ba:	1141                	add	sp,sp,-16
    800010bc:	e406                	sd	ra,8(sp)
    800010be:	e022                	sd	s0,0(sp)
    800010c0:	0800                	add	s0,sp,16
    800010c2:	87b6                	mv	a5,a3
    800010c4:	86b2                	mv	a3,a2
    800010c6:	863e                	mv	a2,a5
    800010c8:	f43ff0ef          	jal	8000100a <mappages>
    800010cc:	e509                	bnez	a0,800010d6 <kvmmap+0x1c>
    800010ce:	60a2                	ld	ra,8(sp)
    800010d0:	6402                	ld	s0,0(sp)
    800010d2:	0141                	add	sp,sp,16
    800010d4:	8082                	ret
    800010d6:	00006517          	auipc	a0,0x6
    800010da:	05a50513          	add	a0,a0,90 # 80007130 <digits+0x118>
    800010de:	ee4ff0ef          	jal	800007c2 <panic>

00000000800010e2 <kvmmake>:
    800010e2:	1101                	add	sp,sp,-32
    800010e4:	ec06                	sd	ra,24(sp)
    800010e6:	e822                	sd	s0,16(sp)
    800010e8:	e426                	sd	s1,8(sp)
    800010ea:	e04a                	sd	s2,0(sp)
    800010ec:	1000                	add	s0,sp,32
    800010ee:	9f9ff0ef          	jal	80000ae6 <kalloc>
    800010f2:	84aa                	mv	s1,a0
    800010f4:	6605                	lui	a2,0x1
    800010f6:	4581                	li	a1,0
    800010f8:	b93ff0ef          	jal	80000c8a <memset>
    800010fc:	4719                	li	a4,6
    800010fe:	6685                	lui	a3,0x1
    80001100:	10000637          	lui	a2,0x10000
    80001104:	100005b7          	lui	a1,0x10000
    80001108:	8526                	mv	a0,s1
    8000110a:	fb1ff0ef          	jal	800010ba <kvmmap>
    8000110e:	4719                	li	a4,6
    80001110:	6685                	lui	a3,0x1
    80001112:	10001637          	lui	a2,0x10001
    80001116:	100015b7          	lui	a1,0x10001
    8000111a:	8526                	mv	a0,s1
    8000111c:	f9fff0ef          	jal	800010ba <kvmmap>
    80001120:	4719                	li	a4,6
    80001122:	040006b7          	lui	a3,0x4000
    80001126:	0c000637          	lui	a2,0xc000
    8000112a:	0c0005b7          	lui	a1,0xc000
    8000112e:	8526                	mv	a0,s1
    80001130:	f8bff0ef          	jal	800010ba <kvmmap>
    80001134:	00006917          	auipc	s2,0x6
    80001138:	ecc90913          	add	s2,s2,-308 # 80007000 <etext>
    8000113c:	4729                	li	a4,10
    8000113e:	80006697          	auipc	a3,0x80006
    80001142:	ec268693          	add	a3,a3,-318 # 7000 <_entry-0x7fff9000>
    80001146:	4605                	li	a2,1
    80001148:	067e                	sll	a2,a2,0x1f
    8000114a:	85b2                	mv	a1,a2
    8000114c:	8526                	mv	a0,s1
    8000114e:	f6dff0ef          	jal	800010ba <kvmmap>
    80001152:	4719                	li	a4,6
    80001154:	46c5                	li	a3,17
    80001156:	06ee                	sll	a3,a3,0x1b
    80001158:	412686b3          	sub	a3,a3,s2
    8000115c:	864a                	mv	a2,s2
    8000115e:	85ca                	mv	a1,s2
    80001160:	8526                	mv	a0,s1
    80001162:	f59ff0ef          	jal	800010ba <kvmmap>
    80001166:	4729                	li	a4,10
    80001168:	6685                	lui	a3,0x1
    8000116a:	00005617          	auipc	a2,0x5
    8000116e:	e9660613          	add	a2,a2,-362 # 80006000 <_trampoline>
    80001172:	040005b7          	lui	a1,0x4000
    80001176:	15fd                	add	a1,a1,-1 # 3ffffff <_entry-0x7c000001>
    80001178:	05b2                	sll	a1,a1,0xc
    8000117a:	8526                	mv	a0,s1
    8000117c:	f3fff0ef          	jal	800010ba <kvmmap>
    80001180:	8526                	mv	a0,s1
    80001182:	5ac000ef          	jal	8000172e <proc_mapstacks>
    80001186:	8526                	mv	a0,s1
    80001188:	60e2                	ld	ra,24(sp)
    8000118a:	6442                	ld	s0,16(sp)
    8000118c:	64a2                	ld	s1,8(sp)
    8000118e:	6902                	ld	s2,0(sp)
    80001190:	6105                	add	sp,sp,32
    80001192:	8082                	ret

0000000080001194 <kvminit>:
    80001194:	1141                	add	sp,sp,-16
    80001196:	e406                	sd	ra,8(sp)
    80001198:	e022                	sd	s0,0(sp)
    8000119a:	0800                	add	s0,sp,16
    8000119c:	f47ff0ef          	jal	800010e2 <kvmmake>
    800011a0:	00006797          	auipc	a5,0x6
    800011a4:	6aa7b423          	sd	a0,1704(a5) # 80007848 <kernel_pagetable>
    800011a8:	60a2                	ld	ra,8(sp)
    800011aa:	6402                	ld	s0,0(sp)
    800011ac:	0141                	add	sp,sp,16
    800011ae:	8082                	ret

00000000800011b0 <uvmcreate>:
    800011b0:	1101                	add	sp,sp,-32
    800011b2:	ec06                	sd	ra,24(sp)
    800011b4:	e822                	sd	s0,16(sp)
    800011b6:	e426                	sd	s1,8(sp)
    800011b8:	1000                	add	s0,sp,32
    800011ba:	92dff0ef          	jal	80000ae6 <kalloc>
    800011be:	84aa                	mv	s1,a0
    800011c0:	c509                	beqz	a0,800011ca <uvmcreate+0x1a>
    800011c2:	6605                	lui	a2,0x1
    800011c4:	4581                	li	a1,0
    800011c6:	ac5ff0ef          	jal	80000c8a <memset>
    800011ca:	8526                	mv	a0,s1
    800011cc:	60e2                	ld	ra,24(sp)
    800011ce:	6442                	ld	s0,16(sp)
    800011d0:	64a2                	ld	s1,8(sp)
    800011d2:	6105                	add	sp,sp,32
    800011d4:	8082                	ret

00000000800011d6 <uvmunmap>:
    800011d6:	7139                	add	sp,sp,-64
    800011d8:	fc06                	sd	ra,56(sp)
    800011da:	f822                	sd	s0,48(sp)
    800011dc:	f426                	sd	s1,40(sp)
    800011de:	f04a                	sd	s2,32(sp)
    800011e0:	ec4e                	sd	s3,24(sp)
    800011e2:	e852                	sd	s4,16(sp)
    800011e4:	e456                	sd	s5,8(sp)
    800011e6:	e05a                	sd	s6,0(sp)
    800011e8:	0080                	add	s0,sp,64
    800011ea:	03459793          	sll	a5,a1,0x34
    800011ee:	e785                	bnez	a5,80001216 <uvmunmap+0x40>
    800011f0:	8aaa                	mv	s5,a0
    800011f2:	84ae                	mv	s1,a1
    800011f4:	8b36                	mv	s6,a3
    800011f6:	0632                	sll	a2,a2,0xc
    800011f8:	00b609b3          	add	s3,a2,a1
    800011fc:	6a05                	lui	s4,0x1
    800011fe:	0335eb63          	bltu	a1,s3,80001234 <uvmunmap+0x5e>
    80001202:	70e2                	ld	ra,56(sp)
    80001204:	7442                	ld	s0,48(sp)
    80001206:	74a2                	ld	s1,40(sp)
    80001208:	7902                	ld	s2,32(sp)
    8000120a:	69e2                	ld	s3,24(sp)
    8000120c:	6a42                	ld	s4,16(sp)
    8000120e:	6aa2                	ld	s5,8(sp)
    80001210:	6b02                	ld	s6,0(sp)
    80001212:	6121                	add	sp,sp,64
    80001214:	8082                	ret
    80001216:	00006517          	auipc	a0,0x6
    8000121a:	f2250513          	add	a0,a0,-222 # 80007138 <digits+0x120>
    8000121e:	da4ff0ef          	jal	800007c2 <panic>
    80001222:	8129                	srl	a0,a0,0xa
    80001224:	0532                	sll	a0,a0,0xc
    80001226:	fdeff0ef          	jal	80000a04 <kfree>
    8000122a:	00093023          	sd	zero,0(s2)
    8000122e:	94d2                	add	s1,s1,s4
    80001230:	fd34f9e3          	bgeu	s1,s3,80001202 <uvmunmap+0x2c>
    80001234:	4601                	li	a2,0
    80001236:	85a6                	mv	a1,s1
    80001238:	8556                	mv	a0,s5
    8000123a:	cf9ff0ef          	jal	80000f32 <walk>
    8000123e:	892a                	mv	s2,a0
    80001240:	d57d                	beqz	a0,8000122e <uvmunmap+0x58>
    80001242:	6108                	ld	a0,0(a0)
    80001244:	00157793          	and	a5,a0,1
    80001248:	d3fd                	beqz	a5,8000122e <uvmunmap+0x58>
    8000124a:	fe0b00e3          	beqz	s6,8000122a <uvmunmap+0x54>
    8000124e:	bfd1                	j	80001222 <uvmunmap+0x4c>

0000000080001250 <uvmdealloc>:
    80001250:	1101                	add	sp,sp,-32
    80001252:	ec06                	sd	ra,24(sp)
    80001254:	e822                	sd	s0,16(sp)
    80001256:	e426                	sd	s1,8(sp)
    80001258:	1000                	add	s0,sp,32
    8000125a:	84ae                	mv	s1,a1
    8000125c:	00b67d63          	bgeu	a2,a1,80001276 <uvmdealloc+0x26>
    80001260:	84b2                	mv	s1,a2
    80001262:	6605                	lui	a2,0x1
    80001264:	167d                	add	a2,a2,-1 # fff <_entry-0x7ffff001>
    80001266:	00c487b3          	add	a5,s1,a2
    8000126a:	777d                	lui	a4,0xfffff
    8000126c:	8ff9                	and	a5,a5,a4
    8000126e:	962e                	add	a2,a2,a1
    80001270:	8e79                	and	a2,a2,a4
    80001272:	00c7e863          	bltu	a5,a2,80001282 <uvmdealloc+0x32>
    80001276:	8526                	mv	a0,s1
    80001278:	60e2                	ld	ra,24(sp)
    8000127a:	6442                	ld	s0,16(sp)
    8000127c:	64a2                	ld	s1,8(sp)
    8000127e:	6105                	add	sp,sp,32
    80001280:	8082                	ret
    80001282:	8e1d                	sub	a2,a2,a5
    80001284:	8231                	srl	a2,a2,0xc
    80001286:	4685                	li	a3,1
    80001288:	2601                	sext.w	a2,a2
    8000128a:	85be                	mv	a1,a5
    8000128c:	f4bff0ef          	jal	800011d6 <uvmunmap>
    80001290:	b7dd                	j	80001276 <uvmdealloc+0x26>

0000000080001292 <uvmalloc>:
    80001292:	08b66963          	bltu	a2,a1,80001324 <uvmalloc+0x92>
    80001296:	7139                	add	sp,sp,-64
    80001298:	fc06                	sd	ra,56(sp)
    8000129a:	f822                	sd	s0,48(sp)
    8000129c:	f426                	sd	s1,40(sp)
    8000129e:	f04a                	sd	s2,32(sp)
    800012a0:	ec4e                	sd	s3,24(sp)
    800012a2:	e852                	sd	s4,16(sp)
    800012a4:	e456                	sd	s5,8(sp)
    800012a6:	e05a                	sd	s6,0(sp)
    800012a8:	0080                	add	s0,sp,64
    800012aa:	6a85                	lui	s5,0x1
    800012ac:	1afd                	add	s5,s5,-1 # fff <_entry-0x7ffff001>
    800012ae:	95d6                	add	a1,a1,s5
    800012b0:	7afd                	lui	s5,0xfffff
    800012b2:	0155fab3          	and	s5,a1,s5
    800012b6:	06caf963          	bgeu	s5,a2,80001328 <uvmalloc+0x96>
    800012ba:	89b2                	mv	s3,a2
    800012bc:	8b2a                	mv	s6,a0
    800012be:	8956                	mv	s2,s5
    800012c0:	0126ea13          	or	s4,a3,18
    800012c4:	823ff0ef          	jal	80000ae6 <kalloc>
    800012c8:	84aa                	mv	s1,a0
    800012ca:	c11d                	beqz	a0,800012f0 <uvmalloc+0x5e>
    800012cc:	6605                	lui	a2,0x1
    800012ce:	4581                	li	a1,0
    800012d0:	9bbff0ef          	jal	80000c8a <memset>
    800012d4:	8752                	mv	a4,s4
    800012d6:	86a6                	mv	a3,s1
    800012d8:	6605                	lui	a2,0x1
    800012da:	85ca                	mv	a1,s2
    800012dc:	855a                	mv	a0,s6
    800012de:	d2dff0ef          	jal	8000100a <mappages>
    800012e2:	e51d                	bnez	a0,80001310 <uvmalloc+0x7e>
    800012e4:	6785                	lui	a5,0x1
    800012e6:	993e                	add	s2,s2,a5
    800012e8:	fd396ee3          	bltu	s2,s3,800012c4 <uvmalloc+0x32>
    800012ec:	854e                	mv	a0,s3
    800012ee:	a039                	j	800012fc <uvmalloc+0x6a>
    800012f0:	8656                	mv	a2,s5
    800012f2:	85ca                	mv	a1,s2
    800012f4:	855a                	mv	a0,s6
    800012f6:	f5bff0ef          	jal	80001250 <uvmdealloc>
    800012fa:	4501                	li	a0,0
    800012fc:	70e2                	ld	ra,56(sp)
    800012fe:	7442                	ld	s0,48(sp)
    80001300:	74a2                	ld	s1,40(sp)
    80001302:	7902                	ld	s2,32(sp)
    80001304:	69e2                	ld	s3,24(sp)
    80001306:	6a42                	ld	s4,16(sp)
    80001308:	6aa2                	ld	s5,8(sp)
    8000130a:	6b02                	ld	s6,0(sp)
    8000130c:	6121                	add	sp,sp,64
    8000130e:	8082                	ret
    80001310:	8526                	mv	a0,s1
    80001312:	ef2ff0ef          	jal	80000a04 <kfree>
    80001316:	8656                	mv	a2,s5
    80001318:	85ca                	mv	a1,s2
    8000131a:	855a                	mv	a0,s6
    8000131c:	f35ff0ef          	jal	80001250 <uvmdealloc>
    80001320:	4501                	li	a0,0
    80001322:	bfe9                	j	800012fc <uvmalloc+0x6a>
    80001324:	852e                	mv	a0,a1
    80001326:	8082                	ret
    80001328:	8532                	mv	a0,a2
    8000132a:	bfc9                	j	800012fc <uvmalloc+0x6a>

000000008000132c <freewalk>:
    8000132c:	7179                	add	sp,sp,-48
    8000132e:	f406                	sd	ra,40(sp)
    80001330:	f022                	sd	s0,32(sp)
    80001332:	ec26                	sd	s1,24(sp)
    80001334:	e84a                	sd	s2,16(sp)
    80001336:	e44e                	sd	s3,8(sp)
    80001338:	e052                	sd	s4,0(sp)
    8000133a:	1800                	add	s0,sp,48
    8000133c:	8a2a                	mv	s4,a0
    8000133e:	84aa                	mv	s1,a0
    80001340:	6905                	lui	s2,0x1
    80001342:	992a                	add	s2,s2,a0
    80001344:	4985                	li	s3,1
    80001346:	a811                	j	8000135a <freewalk+0x2e>
    80001348:	8129                	srl	a0,a0,0xa
    8000134a:	0532                	sll	a0,a0,0xc
    8000134c:	fe1ff0ef          	jal	8000132c <freewalk>
    80001350:	0004b023          	sd	zero,0(s1)
    80001354:	04a1                	add	s1,s1,8
    80001356:	01248f63          	beq	s1,s2,80001374 <freewalk+0x48>
    8000135a:	6088                	ld	a0,0(s1)
    8000135c:	00f57793          	and	a5,a0,15
    80001360:	ff3784e3          	beq	a5,s3,80001348 <freewalk+0x1c>
    80001364:	8905                	and	a0,a0,1
    80001366:	d57d                	beqz	a0,80001354 <freewalk+0x28>
    80001368:	00006517          	auipc	a0,0x6
    8000136c:	de850513          	add	a0,a0,-536 # 80007150 <digits+0x138>
    80001370:	c52ff0ef          	jal	800007c2 <panic>
    80001374:	8552                	mv	a0,s4
    80001376:	e8eff0ef          	jal	80000a04 <kfree>
    8000137a:	70a2                	ld	ra,40(sp)
    8000137c:	7402                	ld	s0,32(sp)
    8000137e:	64e2                	ld	s1,24(sp)
    80001380:	6942                	ld	s2,16(sp)
    80001382:	69a2                	ld	s3,8(sp)
    80001384:	6a02                	ld	s4,0(sp)
    80001386:	6145                	add	sp,sp,48
    80001388:	8082                	ret

000000008000138a <uvmfree>:
    8000138a:	1101                	add	sp,sp,-32
    8000138c:	ec06                	sd	ra,24(sp)
    8000138e:	e822                	sd	s0,16(sp)
    80001390:	e426                	sd	s1,8(sp)
    80001392:	1000                	add	s0,sp,32
    80001394:	84aa                	mv	s1,a0
    80001396:	e989                	bnez	a1,800013a8 <uvmfree+0x1e>
    80001398:	8526                	mv	a0,s1
    8000139a:	f93ff0ef          	jal	8000132c <freewalk>
    8000139e:	60e2                	ld	ra,24(sp)
    800013a0:	6442                	ld	s0,16(sp)
    800013a2:	64a2                	ld	s1,8(sp)
    800013a4:	6105                	add	sp,sp,32
    800013a6:	8082                	ret
    800013a8:	6605                	lui	a2,0x1
    800013aa:	167d                	add	a2,a2,-1 # fff <_entry-0x7ffff001>
    800013ac:	962e                	add	a2,a2,a1
    800013ae:	4685                	li	a3,1
    800013b0:	8231                	srl	a2,a2,0xc
    800013b2:	4581                	li	a1,0
    800013b4:	e23ff0ef          	jal	800011d6 <uvmunmap>
    800013b8:	b7c5                	j	80001398 <uvmfree+0xe>

00000000800013ba <uvmcopy>:
    800013ba:	ce49                	beqz	a2,80001454 <uvmcopy+0x9a>
    800013bc:	715d                	add	sp,sp,-80
    800013be:	e486                	sd	ra,72(sp)
    800013c0:	e0a2                	sd	s0,64(sp)
    800013c2:	fc26                	sd	s1,56(sp)
    800013c4:	f84a                	sd	s2,48(sp)
    800013c6:	f44e                	sd	s3,40(sp)
    800013c8:	f052                	sd	s4,32(sp)
    800013ca:	ec56                	sd	s5,24(sp)
    800013cc:	e85a                	sd	s6,16(sp)
    800013ce:	e45e                	sd	s7,8(sp)
    800013d0:	0880                	add	s0,sp,80
    800013d2:	8a32                	mv	s4,a2
    800013d4:	8b2e                	mv	s6,a1
    800013d6:	8aaa                	mv	s5,a0
    800013d8:	4481                	li	s1,0
    800013da:	a029                	j	800013e4 <uvmcopy+0x2a>
    800013dc:	6785                	lui	a5,0x1
    800013de:	94be                	add	s1,s1,a5
    800013e0:	0544fe63          	bgeu	s1,s4,8000143c <uvmcopy+0x82>
    800013e4:	4601                	li	a2,0
    800013e6:	85a6                	mv	a1,s1
    800013e8:	8556                	mv	a0,s5
    800013ea:	b49ff0ef          	jal	80000f32 <walk>
    800013ee:	d57d                	beqz	a0,800013dc <uvmcopy+0x22>
    800013f0:	6118                	ld	a4,0(a0)
    800013f2:	00177793          	and	a5,a4,1
    800013f6:	d3fd                	beqz	a5,800013dc <uvmcopy+0x22>
    800013f8:	00a75793          	srl	a5,a4,0xa
    800013fc:	00c79b93          	sll	s7,a5,0xc
    80001400:	3ff77913          	and	s2,a4,1023
    80001404:	ee2ff0ef          	jal	80000ae6 <kalloc>
    80001408:	89aa                	mv	s3,a0
    8000140a:	c105                	beqz	a0,8000142a <uvmcopy+0x70>
    8000140c:	6605                	lui	a2,0x1
    8000140e:	85de                	mv	a1,s7
    80001410:	8e7ff0ef          	jal	80000cf6 <memmove>
    80001414:	874a                	mv	a4,s2
    80001416:	86ce                	mv	a3,s3
    80001418:	6605                	lui	a2,0x1
    8000141a:	85a6                	mv	a1,s1
    8000141c:	855a                	mv	a0,s6
    8000141e:	bedff0ef          	jal	8000100a <mappages>
    80001422:	dd4d                	beqz	a0,800013dc <uvmcopy+0x22>
    80001424:	854e                	mv	a0,s3
    80001426:	ddeff0ef          	jal	80000a04 <kfree>
    8000142a:	4685                	li	a3,1
    8000142c:	00c4d613          	srl	a2,s1,0xc
    80001430:	4581                	li	a1,0
    80001432:	855a                	mv	a0,s6
    80001434:	da3ff0ef          	jal	800011d6 <uvmunmap>
    80001438:	557d                	li	a0,-1
    8000143a:	a011                	j	8000143e <uvmcopy+0x84>
    8000143c:	4501                	li	a0,0
    8000143e:	60a6                	ld	ra,72(sp)
    80001440:	6406                	ld	s0,64(sp)
    80001442:	74e2                	ld	s1,56(sp)
    80001444:	7942                	ld	s2,48(sp)
    80001446:	79a2                	ld	s3,40(sp)
    80001448:	7a02                	ld	s4,32(sp)
    8000144a:	6ae2                	ld	s5,24(sp)
    8000144c:	6b42                	ld	s6,16(sp)
    8000144e:	6ba2                	ld	s7,8(sp)
    80001450:	6161                	add	sp,sp,80
    80001452:	8082                	ret
    80001454:	4501                	li	a0,0
    80001456:	8082                	ret

0000000080001458 <uvmclear>:
    80001458:	1141                	add	sp,sp,-16
    8000145a:	e406                	sd	ra,8(sp)
    8000145c:	e022                	sd	s0,0(sp)
    8000145e:	0800                	add	s0,sp,16
    80001460:	4601                	li	a2,0
    80001462:	ad1ff0ef          	jal	80000f32 <walk>
    80001466:	c901                	beqz	a0,80001476 <uvmclear+0x1e>
    80001468:	611c                	ld	a5,0(a0)
    8000146a:	9bbd                	and	a5,a5,-17
    8000146c:	e11c                	sd	a5,0(a0)
    8000146e:	60a2                	ld	ra,8(sp)
    80001470:	6402                	ld	s0,0(sp)
    80001472:	0141                	add	sp,sp,16
    80001474:	8082                	ret
    80001476:	00006517          	auipc	a0,0x6
    8000147a:	cea50513          	add	a0,a0,-790 # 80007160 <digits+0x148>
    8000147e:	b44ff0ef          	jal	800007c2 <panic>

0000000080001482 <copyinstr>:
    80001482:	cadd                	beqz	a3,80001538 <copyinstr+0xb6>
    80001484:	715d                	add	sp,sp,-80
    80001486:	e486                	sd	ra,72(sp)
    80001488:	e0a2                	sd	s0,64(sp)
    8000148a:	fc26                	sd	s1,56(sp)
    8000148c:	f84a                	sd	s2,48(sp)
    8000148e:	f44e                	sd	s3,40(sp)
    80001490:	f052                	sd	s4,32(sp)
    80001492:	ec56                	sd	s5,24(sp)
    80001494:	e85a                	sd	s6,16(sp)
    80001496:	e45e                	sd	s7,8(sp)
    80001498:	e062                	sd	s8,0(sp)
    8000149a:	0880                	add	s0,sp,80
    8000149c:	8aaa                	mv	s5,a0
    8000149e:	84ae                	mv	s1,a1
    800014a0:	8c32                	mv	s8,a2
    800014a2:	8bb6                	mv	s7,a3
    800014a4:	7a7d                	lui	s4,0xfffff
    800014a6:	6985                	lui	s3,0x1
    800014a8:	4b05                	li	s6,1
    800014aa:	a801                	j	800014ba <copyinstr+0x38>
    800014ac:	87a6                	mv	a5,s1
    800014ae:	a8b1                	j	8000150a <copyinstr+0x88>
    800014b0:	84b2                	mv	s1,a2
    800014b2:	01390c33          	add	s8,s2,s3
    800014b6:	060b8d63          	beqz	s7,80001530 <copyinstr+0xae>
    800014ba:	014c7933          	and	s2,s8,s4
    800014be:	85ca                	mv	a1,s2
    800014c0:	8556                	mv	a0,s5
    800014c2:	b0bff0ef          	jal	80000fcc <walkaddr>
    800014c6:	c53d                	beqz	a0,80001534 <copyinstr+0xb2>
    800014c8:	41890633          	sub	a2,s2,s8
    800014cc:	964e                	add	a2,a2,s3
    800014ce:	00cbf363          	bgeu	s7,a2,800014d4 <copyinstr+0x52>
    800014d2:	865e                	mv	a2,s7
    800014d4:	9562                	add	a0,a0,s8
    800014d6:	41250533          	sub	a0,a0,s2
    800014da:	de61                	beqz	a2,800014b2 <copyinstr+0x30>
    800014dc:	00054703          	lbu	a4,0(a0)
    800014e0:	d771                	beqz	a4,800014ac <copyinstr+0x2a>
    800014e2:	9626                	add	a2,a2,s1
    800014e4:	87a6                	mv	a5,s1
    800014e6:	1bfd                	add	s7,s7,-1 # fff <_entry-0x7ffff001>
    800014e8:	009b86b3          	add	a3,s7,s1
    800014ec:	409b04b3          	sub	s1,s6,s1
    800014f0:	94aa                	add	s1,s1,a0
    800014f2:	00e78023          	sb	a4,0(a5) # 1000 <_entry-0x7ffff000>
    800014f6:	40f68bb3          	sub	s7,a3,a5
    800014fa:	00f48733          	add	a4,s1,a5
    800014fe:	0785                	add	a5,a5,1
    80001500:	faf608e3          	beq	a2,a5,800014b0 <copyinstr+0x2e>
    80001504:	00074703          	lbu	a4,0(a4) # fffffffffffff000 <end+0xffffffff7ffde498>
    80001508:	f76d                	bnez	a4,800014f2 <copyinstr+0x70>
    8000150a:	00078023          	sb	zero,0(a5)
    8000150e:	4785                	li	a5,1
    80001510:	0017b793          	seqz	a5,a5
    80001514:	40f00533          	neg	a0,a5
    80001518:	60a6                	ld	ra,72(sp)
    8000151a:	6406                	ld	s0,64(sp)
    8000151c:	74e2                	ld	s1,56(sp)
    8000151e:	7942                	ld	s2,48(sp)
    80001520:	79a2                	ld	s3,40(sp)
    80001522:	7a02                	ld	s4,32(sp)
    80001524:	6ae2                	ld	s5,24(sp)
    80001526:	6b42                	ld	s6,16(sp)
    80001528:	6ba2                	ld	s7,8(sp)
    8000152a:	6c02                	ld	s8,0(sp)
    8000152c:	6161                	add	sp,sp,80
    8000152e:	8082                	ret
    80001530:	4781                	li	a5,0
    80001532:	bff9                	j	80001510 <copyinstr+0x8e>
    80001534:	557d                	li	a0,-1
    80001536:	b7cd                	j	80001518 <copyinstr+0x96>
    80001538:	4781                	li	a5,0
    8000153a:	0017b793          	seqz	a5,a5
    8000153e:	40f00533          	neg	a0,a5
    80001542:	8082                	ret

0000000080001544 <ismapped>:
    80001544:	1141                	add	sp,sp,-16
    80001546:	e406                	sd	ra,8(sp)
    80001548:	e022                	sd	s0,0(sp)
    8000154a:	0800                	add	s0,sp,16
    8000154c:	4601                	li	a2,0
    8000154e:	9e5ff0ef          	jal	80000f32 <walk>
    80001552:	c519                	beqz	a0,80001560 <ismapped+0x1c>
    80001554:	6108                	ld	a0,0(a0)
    80001556:	8905                	and	a0,a0,1
    80001558:	60a2                	ld	ra,8(sp)
    8000155a:	6402                	ld	s0,0(sp)
    8000155c:	0141                	add	sp,sp,16
    8000155e:	8082                	ret
    80001560:	4501                	li	a0,0
    80001562:	bfdd                	j	80001558 <ismapped+0x14>

0000000080001564 <vmfault>:
    80001564:	7179                	add	sp,sp,-48
    80001566:	f406                	sd	ra,40(sp)
    80001568:	f022                	sd	s0,32(sp)
    8000156a:	ec26                	sd	s1,24(sp)
    8000156c:	e84a                	sd	s2,16(sp)
    8000156e:	e44e                	sd	s3,8(sp)
    80001570:	e052                	sd	s4,0(sp)
    80001572:	1800                	add	s0,sp,48
    80001574:	892a                	mv	s2,a0
    80001576:	84ae                	mv	s1,a1
    80001578:	314000ef          	jal	8000188c <myproc>
    8000157c:	653c                	ld	a5,72(a0)
    8000157e:	00f4ec63          	bltu	s1,a5,80001596 <vmfault+0x32>
    80001582:	4901                	li	s2,0
    80001584:	854a                	mv	a0,s2
    80001586:	70a2                	ld	ra,40(sp)
    80001588:	7402                	ld	s0,32(sp)
    8000158a:	64e2                	ld	s1,24(sp)
    8000158c:	6942                	ld	s2,16(sp)
    8000158e:	69a2                	ld	s3,8(sp)
    80001590:	6a02                	ld	s4,0(sp)
    80001592:	6145                	add	sp,sp,48
    80001594:	8082                	ret
    80001596:	89aa                	mv	s3,a0
    80001598:	77fd                	lui	a5,0xfffff
    8000159a:	8cfd                	and	s1,s1,a5
    8000159c:	85a6                	mv	a1,s1
    8000159e:	854a                	mv	a0,s2
    800015a0:	fa5ff0ef          	jal	80001544 <ismapped>
    800015a4:	4901                	li	s2,0
    800015a6:	fd79                	bnez	a0,80001584 <vmfault+0x20>
    800015a8:	d3eff0ef          	jal	80000ae6 <kalloc>
    800015ac:	8a2a                	mv	s4,a0
    800015ae:	d979                	beqz	a0,80001584 <vmfault+0x20>
    800015b0:	892a                	mv	s2,a0
    800015b2:	6605                	lui	a2,0x1
    800015b4:	4581                	li	a1,0
    800015b6:	ed4ff0ef          	jal	80000c8a <memset>
    800015ba:	4759                	li	a4,22
    800015bc:	86d2                	mv	a3,s4
    800015be:	6605                	lui	a2,0x1
    800015c0:	85a6                	mv	a1,s1
    800015c2:	0509b503          	ld	a0,80(s3) # 1050 <_entry-0x7fffefb0>
    800015c6:	a45ff0ef          	jal	8000100a <mappages>
    800015ca:	dd4d                	beqz	a0,80001584 <vmfault+0x20>
    800015cc:	8552                	mv	a0,s4
    800015ce:	c36ff0ef          	jal	80000a04 <kfree>
    800015d2:	4901                	li	s2,0
    800015d4:	bf45                	j	80001584 <vmfault+0x20>

00000000800015d6 <copyout>:
    800015d6:	cec1                	beqz	a3,8000166e <copyout+0x98>
    800015d8:	711d                	add	sp,sp,-96
    800015da:	ec86                	sd	ra,88(sp)
    800015dc:	e8a2                	sd	s0,80(sp)
    800015de:	e4a6                	sd	s1,72(sp)
    800015e0:	e0ca                	sd	s2,64(sp)
    800015e2:	fc4e                	sd	s3,56(sp)
    800015e4:	f852                	sd	s4,48(sp)
    800015e6:	f456                	sd	s5,40(sp)
    800015e8:	f05a                	sd	s6,32(sp)
    800015ea:	ec5e                	sd	s7,24(sp)
    800015ec:	e862                	sd	s8,16(sp)
    800015ee:	e466                	sd	s9,8(sp)
    800015f0:	e06a                	sd	s10,0(sp)
    800015f2:	1080                	add	s0,sp,96
    800015f4:	8baa                	mv	s7,a0
    800015f6:	8a2e                	mv	s4,a1
    800015f8:	8b32                	mv	s6,a2
    800015fa:	89b6                	mv	s3,a3
    800015fc:	74fd                	lui	s1,0xfffff
    800015fe:	8ced                	and	s1,s1,a1
    80001600:	57fd                	li	a5,-1
    80001602:	83e9                	srl	a5,a5,0x1a
    80001604:	0697e763          	bltu	a5,s1,80001672 <copyout+0x9c>
    80001608:	6c85                	lui	s9,0x1
    8000160a:	8c3e                	mv	s8,a5
    8000160c:	a015                	j	80001630 <copyout+0x5a>
    8000160e:	409a0533          	sub	a0,s4,s1
    80001612:	0009061b          	sext.w	a2,s2
    80001616:	85da                	mv	a1,s6
    80001618:	9556                	add	a0,a0,s5
    8000161a:	edcff0ef          	jal	80000cf6 <memmove>
    8000161e:	412989b3          	sub	s3,s3,s2
    80001622:	9b4a                	add	s6,s6,s2
    80001624:	04098363          	beqz	s3,8000166a <copyout+0x94>
    80001628:	8a6a                	mv	s4,s10
    8000162a:	84ea                	mv	s1,s10
    8000162c:	05ac6563          	bltu	s8,s10,80001676 <copyout+0xa0>
    80001630:	85a6                	mv	a1,s1
    80001632:	855e                	mv	a0,s7
    80001634:	999ff0ef          	jal	80000fcc <walkaddr>
    80001638:	8aaa                	mv	s5,a0
    8000163a:	e901                	bnez	a0,8000164a <copyout+0x74>
    8000163c:	4601                	li	a2,0
    8000163e:	85a6                	mv	a1,s1
    80001640:	855e                	mv	a0,s7
    80001642:	f23ff0ef          	jal	80001564 <vmfault>
    80001646:	8aaa                	mv	s5,a0
    80001648:	c90d                	beqz	a0,8000167a <copyout+0xa4>
    8000164a:	4601                	li	a2,0
    8000164c:	85a6                	mv	a1,s1
    8000164e:	855e                	mv	a0,s7
    80001650:	8e3ff0ef          	jal	80000f32 <walk>
    80001654:	611c                	ld	a5,0(a0)
    80001656:	8b91                	and	a5,a5,4
    80001658:	c39d                	beqz	a5,8000167e <copyout+0xa8>
    8000165a:	01948d33          	add	s10,s1,s9
    8000165e:	414d0933          	sub	s2,s10,s4
    80001662:	fb29f6e3          	bgeu	s3,s2,8000160e <copyout+0x38>
    80001666:	894e                	mv	s2,s3
    80001668:	b75d                	j	8000160e <copyout+0x38>
    8000166a:	4501                	li	a0,0
    8000166c:	a811                	j	80001680 <copyout+0xaa>
    8000166e:	4501                	li	a0,0
    80001670:	8082                	ret
    80001672:	557d                	li	a0,-1
    80001674:	a031                	j	80001680 <copyout+0xaa>
    80001676:	557d                	li	a0,-1
    80001678:	a021                	j	80001680 <copyout+0xaa>
    8000167a:	557d                	li	a0,-1
    8000167c:	a011                	j	80001680 <copyout+0xaa>
    8000167e:	557d                	li	a0,-1
    80001680:	60e6                	ld	ra,88(sp)
    80001682:	6446                	ld	s0,80(sp)
    80001684:	64a6                	ld	s1,72(sp)
    80001686:	6906                	ld	s2,64(sp)
    80001688:	79e2                	ld	s3,56(sp)
    8000168a:	7a42                	ld	s4,48(sp)
    8000168c:	7aa2                	ld	s5,40(sp)
    8000168e:	7b02                	ld	s6,32(sp)
    80001690:	6be2                	ld	s7,24(sp)
    80001692:	6c42                	ld	s8,16(sp)
    80001694:	6ca2                	ld	s9,8(sp)
    80001696:	6d02                	ld	s10,0(sp)
    80001698:	6125                	add	sp,sp,96
    8000169a:	8082                	ret

000000008000169c <copyin>:
    8000169c:	c6d9                	beqz	a3,8000172a <copyin+0x8e>
    8000169e:	715d                	add	sp,sp,-80
    800016a0:	e486                	sd	ra,72(sp)
    800016a2:	e0a2                	sd	s0,64(sp)
    800016a4:	fc26                	sd	s1,56(sp)
    800016a6:	f84a                	sd	s2,48(sp)
    800016a8:	f44e                	sd	s3,40(sp)
    800016aa:	f052                	sd	s4,32(sp)
    800016ac:	ec56                	sd	s5,24(sp)
    800016ae:	e85a                	sd	s6,16(sp)
    800016b0:	e45e                	sd	s7,8(sp)
    800016b2:	e062                	sd	s8,0(sp)
    800016b4:	0880                	add	s0,sp,80
    800016b6:	8baa                	mv	s7,a0
    800016b8:	8aae                	mv	s5,a1
    800016ba:	8932                	mv	s2,a2
    800016bc:	8a36                	mv	s4,a3
    800016be:	7c7d                	lui	s8,0xfffff
    800016c0:	6b05                	lui	s6,0x1
    800016c2:	a80d                	j	800016f4 <copyin+0x58>
    800016c4:	4601                	li	a2,0
    800016c6:	85ce                	mv	a1,s3
    800016c8:	855e                	mv	a0,s7
    800016ca:	e9bff0ef          	jal	80001564 <vmfault>
    800016ce:	e915                	bnez	a0,80001702 <copyin+0x66>
    800016d0:	557d                	li	a0,-1
    800016d2:	a081                	j	80001712 <copyin+0x76>
    800016d4:	41390933          	sub	s2,s2,s3
    800016d8:	0004861b          	sext.w	a2,s1
    800016dc:	00a905b3          	add	a1,s2,a0
    800016e0:	8556                	mv	a0,s5
    800016e2:	e14ff0ef          	jal	80000cf6 <memmove>
    800016e6:	409a0a33          	sub	s4,s4,s1
    800016ea:	9aa6                	add	s5,s5,s1
    800016ec:	01698933          	add	s2,s3,s6
    800016f0:	020a0063          	beqz	s4,80001710 <copyin+0x74>
    800016f4:	018979b3          	and	s3,s2,s8
    800016f8:	85ce                	mv	a1,s3
    800016fa:	855e                	mv	a0,s7
    800016fc:	8d1ff0ef          	jal	80000fcc <walkaddr>
    80001700:	d171                	beqz	a0,800016c4 <copyin+0x28>
    80001702:	412984b3          	sub	s1,s3,s2
    80001706:	94da                	add	s1,s1,s6
    80001708:	fc9a76e3          	bgeu	s4,s1,800016d4 <copyin+0x38>
    8000170c:	84d2                	mv	s1,s4
    8000170e:	b7d9                	j	800016d4 <copyin+0x38>
    80001710:	4501                	li	a0,0
    80001712:	60a6                	ld	ra,72(sp)
    80001714:	6406                	ld	s0,64(sp)
    80001716:	74e2                	ld	s1,56(sp)
    80001718:	7942                	ld	s2,48(sp)
    8000171a:	79a2                	ld	s3,40(sp)
    8000171c:	7a02                	ld	s4,32(sp)
    8000171e:	6ae2                	ld	s5,24(sp)
    80001720:	6b42                	ld	s6,16(sp)
    80001722:	6ba2                	ld	s7,8(sp)
    80001724:	6c02                	ld	s8,0(sp)
    80001726:	6161                	add	sp,sp,80
    80001728:	8082                	ret
    8000172a:	4501                	li	a0,0
    8000172c:	8082                	ret

000000008000172e <proc_mapstacks>:
    8000172e:	7139                	add	sp,sp,-64
    80001730:	fc06                	sd	ra,56(sp)
    80001732:	f822                	sd	s0,48(sp)
    80001734:	f426                	sd	s1,40(sp)
    80001736:	f04a                	sd	s2,32(sp)
    80001738:	ec4e                	sd	s3,24(sp)
    8000173a:	e852                	sd	s4,16(sp)
    8000173c:	e456                	sd	s5,8(sp)
    8000173e:	e05a                	sd	s6,0(sp)
    80001740:	0080                	add	s0,sp,64
    80001742:	8b2a                	mv	s6,a0
    80001744:	0000e497          	auipc	s1,0xe
    80001748:	64448493          	add	s1,s1,1604 # 8000fd88 <proc>
    8000174c:	8aa6                	mv	s5,s1
    8000174e:	00006a17          	auipc	s4,0x6
    80001752:	8b2a0a13          	add	s4,s4,-1870 # 80007000 <etext>
    80001756:	04000937          	lui	s2,0x4000
    8000175a:	197d                	add	s2,s2,-1 # 3ffffff <_entry-0x7c000001>
    8000175c:	0932                	sll	s2,s2,0xc
    8000175e:	00014997          	auipc	s3,0x14
    80001762:	02a98993          	add	s3,s3,42 # 80015788 <tickslock>
    80001766:	b80ff0ef          	jal	80000ae6 <kalloc>
    8000176a:	862a                	mv	a2,a0
    8000176c:	c121                	beqz	a0,800017ac <proc_mapstacks+0x7e>
    8000176e:	415485b3          	sub	a1,s1,s5
    80001772:	858d                	sra	a1,a1,0x3
    80001774:	000a3783          	ld	a5,0(s4)
    80001778:	02f585b3          	mul	a1,a1,a5
    8000177c:	2585                	addw	a1,a1,1
    8000177e:	00d5959b          	sllw	a1,a1,0xd
    80001782:	4719                	li	a4,6
    80001784:	6685                	lui	a3,0x1
    80001786:	40b905b3          	sub	a1,s2,a1
    8000178a:	855a                	mv	a0,s6
    8000178c:	92fff0ef          	jal	800010ba <kvmmap>
    80001790:	16848493          	add	s1,s1,360
    80001794:	fd3499e3          	bne	s1,s3,80001766 <proc_mapstacks+0x38>
    80001798:	70e2                	ld	ra,56(sp)
    8000179a:	7442                	ld	s0,48(sp)
    8000179c:	74a2                	ld	s1,40(sp)
    8000179e:	7902                	ld	s2,32(sp)
    800017a0:	69e2                	ld	s3,24(sp)
    800017a2:	6a42                	ld	s4,16(sp)
    800017a4:	6aa2                	ld	s5,8(sp)
    800017a6:	6b02                	ld	s6,0(sp)
    800017a8:	6121                	add	sp,sp,64
    800017aa:	8082                	ret
    800017ac:	00006517          	auipc	a0,0x6
    800017b0:	9f450513          	add	a0,a0,-1548 # 800071a0 <states.1753+0x30>
    800017b4:	80eff0ef          	jal	800007c2 <panic>

00000000800017b8 <procinit>:
    800017b8:	7139                	add	sp,sp,-64
    800017ba:	fc06                	sd	ra,56(sp)
    800017bc:	f822                	sd	s0,48(sp)
    800017be:	f426                	sd	s1,40(sp)
    800017c0:	f04a                	sd	s2,32(sp)
    800017c2:	ec4e                	sd	s3,24(sp)
    800017c4:	e852                	sd	s4,16(sp)
    800017c6:	e456                	sd	s5,8(sp)
    800017c8:	e05a                	sd	s6,0(sp)
    800017ca:	0080                	add	s0,sp,64
    800017cc:	00006597          	auipc	a1,0x6
    800017d0:	9dc58593          	add	a1,a1,-1572 # 800071a8 <states.1753+0x38>
    800017d4:	0000e517          	auipc	a0,0xe
    800017d8:	18450513          	add	a0,a0,388 # 8000f958 <pid_lock>
    800017dc:	b5aff0ef          	jal	80000b36 <initlock>
    800017e0:	00006597          	auipc	a1,0x6
    800017e4:	9d058593          	add	a1,a1,-1584 # 800071b0 <states.1753+0x40>
    800017e8:	0000e517          	auipc	a0,0xe
    800017ec:	18850513          	add	a0,a0,392 # 8000f970 <wait_lock>
    800017f0:	b46ff0ef          	jal	80000b36 <initlock>
    800017f4:	0000e497          	auipc	s1,0xe
    800017f8:	59448493          	add	s1,s1,1428 # 8000fd88 <proc>
    800017fc:	00006b17          	auipc	s6,0x6
    80001800:	9c4b0b13          	add	s6,s6,-1596 # 800071c0 <states.1753+0x50>
    80001804:	8aa6                	mv	s5,s1
    80001806:	00005a17          	auipc	s4,0x5
    8000180a:	7faa0a13          	add	s4,s4,2042 # 80007000 <etext>
    8000180e:	04000937          	lui	s2,0x4000
    80001812:	197d                	add	s2,s2,-1 # 3ffffff <_entry-0x7c000001>
    80001814:	0932                	sll	s2,s2,0xc
    80001816:	00014997          	auipc	s3,0x14
    8000181a:	f7298993          	add	s3,s3,-142 # 80015788 <tickslock>
    8000181e:	85da                	mv	a1,s6
    80001820:	8526                	mv	a0,s1
    80001822:	b14ff0ef          	jal	80000b36 <initlock>
    80001826:	0004ac23          	sw	zero,24(s1)
    8000182a:	415487b3          	sub	a5,s1,s5
    8000182e:	878d                	sra	a5,a5,0x3
    80001830:	000a3703          	ld	a4,0(s4)
    80001834:	02e787b3          	mul	a5,a5,a4
    80001838:	2785                	addw	a5,a5,1 # fffffffffffff001 <end+0xffffffff7ffde499>
    8000183a:	00d7979b          	sllw	a5,a5,0xd
    8000183e:	40f907b3          	sub	a5,s2,a5
    80001842:	e0bc                	sd	a5,64(s1)
    80001844:	16848493          	add	s1,s1,360
    80001848:	fd349be3          	bne	s1,s3,8000181e <procinit+0x66>
    8000184c:	70e2                	ld	ra,56(sp)
    8000184e:	7442                	ld	s0,48(sp)
    80001850:	74a2                	ld	s1,40(sp)
    80001852:	7902                	ld	s2,32(sp)
    80001854:	69e2                	ld	s3,24(sp)
    80001856:	6a42                	ld	s4,16(sp)
    80001858:	6aa2                	ld	s5,8(sp)
    8000185a:	6b02                	ld	s6,0(sp)
    8000185c:	6121                	add	sp,sp,64
    8000185e:	8082                	ret

0000000080001860 <cpuid>:
    80001860:	1141                	add	sp,sp,-16
    80001862:	e422                	sd	s0,8(sp)
    80001864:	0800                	add	s0,sp,16
    80001866:	8512                	mv	a0,tp
    80001868:	2501                	sext.w	a0,a0
    8000186a:	6422                	ld	s0,8(sp)
    8000186c:	0141                	add	sp,sp,16
    8000186e:	8082                	ret

0000000080001870 <mycpu>:
    80001870:	1141                	add	sp,sp,-16
    80001872:	e422                	sd	s0,8(sp)
    80001874:	0800                	add	s0,sp,16
    80001876:	8792                	mv	a5,tp
    80001878:	2781                	sext.w	a5,a5
    8000187a:	079e                	sll	a5,a5,0x7
    8000187c:	0000e517          	auipc	a0,0xe
    80001880:	10c50513          	add	a0,a0,268 # 8000f988 <cpus>
    80001884:	953e                	add	a0,a0,a5
    80001886:	6422                	ld	s0,8(sp)
    80001888:	0141                	add	sp,sp,16
    8000188a:	8082                	ret

000000008000188c <myproc>:
    8000188c:	1101                	add	sp,sp,-32
    8000188e:	ec06                	sd	ra,24(sp)
    80001890:	e822                	sd	s0,16(sp)
    80001892:	e426                	sd	s1,8(sp)
    80001894:	1000                	add	s0,sp,32
    80001896:	ae0ff0ef          	jal	80000b76 <push_off>
    8000189a:	8792                	mv	a5,tp
    8000189c:	2781                	sext.w	a5,a5
    8000189e:	079e                	sll	a5,a5,0x7
    800018a0:	0000e717          	auipc	a4,0xe
    800018a4:	0b870713          	add	a4,a4,184 # 8000f958 <pid_lock>
    800018a8:	97ba                	add	a5,a5,a4
    800018aa:	7b84                	ld	s1,48(a5)
    800018ac:	b4eff0ef          	jal	80000bfa <pop_off>
    800018b0:	8526                	mv	a0,s1
    800018b2:	60e2                	ld	ra,24(sp)
    800018b4:	6442                	ld	s0,16(sp)
    800018b6:	64a2                	ld	s1,8(sp)
    800018b8:	6105                	add	sp,sp,32
    800018ba:	8082                	ret

00000000800018bc <forkret>:
    800018bc:	7179                	add	sp,sp,-48
    800018be:	f406                	sd	ra,40(sp)
    800018c0:	f022                	sd	s0,32(sp)
    800018c2:	ec26                	sd	s1,24(sp)
    800018c4:	1800                	add	s0,sp,48
    800018c6:	fc7ff0ef          	jal	8000188c <myproc>
    800018ca:	84aa                	mv	s1,a0
    800018cc:	b82ff0ef          	jal	80000c4e <release>
    800018d0:	00006797          	auipc	a5,0x6
    800018d4:	f5078793          	add	a5,a5,-176 # 80007820 <first.1703>
    800018d8:	439c                	lw	a5,0(a5)
    800018da:	cf8d                	beqz	a5,80001914 <forkret+0x58>
    800018dc:	4505                	li	a0,1
    800018de:	3d1010ef          	jal	800034ae <fsinit>
    800018e2:	00006797          	auipc	a5,0x6
    800018e6:	f207af23          	sw	zero,-194(a5) # 80007820 <first.1703>
    800018ea:	0ff0000f          	fence
    800018ee:	00006517          	auipc	a0,0x6
    800018f2:	8da50513          	add	a0,a0,-1830 # 800071c8 <states.1753+0x58>
    800018f6:	fca43823          	sd	a0,-48(s0)
    800018fa:	fc043c23          	sd	zero,-40(s0)
    800018fe:	fd040593          	add	a1,s0,-48
    80001902:	4b3020ef          	jal	800045b4 <kexec>
    80001906:	6cbc                	ld	a5,88(s1)
    80001908:	fba8                	sd	a0,112(a5)
    8000190a:	6cbc                	ld	a5,88(s1)
    8000190c:	7bb8                	ld	a4,112(a5)
    8000190e:	57fd                	li	a5,-1
    80001910:	02f70d63          	beq	a4,a5,8000194a <forkret+0x8e>
    80001914:	2bd000ef          	jal	800023d0 <prepare_return>
    80001918:	68a8                	ld	a0,80(s1)
    8000191a:	8131                	srl	a0,a0,0xc
    8000191c:	04000737          	lui	a4,0x4000
    80001920:	00004797          	auipc	a5,0x4
    80001924:	78078793          	add	a5,a5,1920 # 800060a0 <userret>
    80001928:	00004697          	auipc	a3,0x4
    8000192c:	6d868693          	add	a3,a3,1752 # 80006000 <_trampoline>
    80001930:	8f95                	sub	a5,a5,a3
    80001932:	177d                	add	a4,a4,-1 # 3ffffff <_entry-0x7c000001>
    80001934:	0732                	sll	a4,a4,0xc
    80001936:	97ba                	add	a5,a5,a4
    80001938:	577d                	li	a4,-1
    8000193a:	177e                	sll	a4,a4,0x3f
    8000193c:	8d59                	or	a0,a0,a4
    8000193e:	9782                	jalr	a5
    80001940:	70a2                	ld	ra,40(sp)
    80001942:	7402                	ld	s0,32(sp)
    80001944:	64e2                	ld	s1,24(sp)
    80001946:	6145                	add	sp,sp,48
    80001948:	8082                	ret
    8000194a:	00006517          	auipc	a0,0x6
    8000194e:	88650513          	add	a0,a0,-1914 # 800071d0 <states.1753+0x60>
    80001952:	e71fe0ef          	jal	800007c2 <panic>

0000000080001956 <allocpid>:
    80001956:	1101                	add	sp,sp,-32
    80001958:	ec06                	sd	ra,24(sp)
    8000195a:	e822                	sd	s0,16(sp)
    8000195c:	e426                	sd	s1,8(sp)
    8000195e:	e04a                	sd	s2,0(sp)
    80001960:	1000                	add	s0,sp,32
    80001962:	0000e917          	auipc	s2,0xe
    80001966:	ff690913          	add	s2,s2,-10 # 8000f958 <pid_lock>
    8000196a:	854a                	mv	a0,s2
    8000196c:	a4aff0ef          	jal	80000bb6 <acquire>
    80001970:	00006797          	auipc	a5,0x6
    80001974:	eb478793          	add	a5,a5,-332 # 80007824 <nextpid>
    80001978:	4384                	lw	s1,0(a5)
    8000197a:	0014871b          	addw	a4,s1,1
    8000197e:	c398                	sw	a4,0(a5)
    80001980:	854a                	mv	a0,s2
    80001982:	accff0ef          	jal	80000c4e <release>
    80001986:	8526                	mv	a0,s1
    80001988:	60e2                	ld	ra,24(sp)
    8000198a:	6442                	ld	s0,16(sp)
    8000198c:	64a2                	ld	s1,8(sp)
    8000198e:	6902                	ld	s2,0(sp)
    80001990:	6105                	add	sp,sp,32
    80001992:	8082                	ret

0000000080001994 <proc_pagetable>:
    80001994:	1101                	add	sp,sp,-32
    80001996:	ec06                	sd	ra,24(sp)
    80001998:	e822                	sd	s0,16(sp)
    8000199a:	e426                	sd	s1,8(sp)
    8000199c:	e04a                	sd	s2,0(sp)
    8000199e:	1000                	add	s0,sp,32
    800019a0:	892a                	mv	s2,a0
    800019a2:	80fff0ef          	jal	800011b0 <uvmcreate>
    800019a6:	84aa                	mv	s1,a0
    800019a8:	cd05                	beqz	a0,800019e0 <proc_pagetable+0x4c>
    800019aa:	4729                	li	a4,10
    800019ac:	00004697          	auipc	a3,0x4
    800019b0:	65468693          	add	a3,a3,1620 # 80006000 <_trampoline>
    800019b4:	6605                	lui	a2,0x1
    800019b6:	040005b7          	lui	a1,0x4000
    800019ba:	15fd                	add	a1,a1,-1 # 3ffffff <_entry-0x7c000001>
    800019bc:	05b2                	sll	a1,a1,0xc
    800019be:	e4cff0ef          	jal	8000100a <mappages>
    800019c2:	02054663          	bltz	a0,800019ee <proc_pagetable+0x5a>
    800019c6:	4719                	li	a4,6
    800019c8:	05893683          	ld	a3,88(s2)
    800019cc:	6605                	lui	a2,0x1
    800019ce:	020005b7          	lui	a1,0x2000
    800019d2:	15fd                	add	a1,a1,-1 # 1ffffff <_entry-0x7e000001>
    800019d4:	05b6                	sll	a1,a1,0xd
    800019d6:	8526                	mv	a0,s1
    800019d8:	e32ff0ef          	jal	8000100a <mappages>
    800019dc:	00054f63          	bltz	a0,800019fa <proc_pagetable+0x66>
    800019e0:	8526                	mv	a0,s1
    800019e2:	60e2                	ld	ra,24(sp)
    800019e4:	6442                	ld	s0,16(sp)
    800019e6:	64a2                	ld	s1,8(sp)
    800019e8:	6902                	ld	s2,0(sp)
    800019ea:	6105                	add	sp,sp,32
    800019ec:	8082                	ret
    800019ee:	4581                	li	a1,0
    800019f0:	8526                	mv	a0,s1
    800019f2:	999ff0ef          	jal	8000138a <uvmfree>
    800019f6:	4481                	li	s1,0
    800019f8:	b7e5                	j	800019e0 <proc_pagetable+0x4c>
    800019fa:	4681                	li	a3,0
    800019fc:	4605                	li	a2,1
    800019fe:	040005b7          	lui	a1,0x4000
    80001a02:	15fd                	add	a1,a1,-1 # 3ffffff <_entry-0x7c000001>
    80001a04:	05b2                	sll	a1,a1,0xc
    80001a06:	8526                	mv	a0,s1
    80001a08:	fceff0ef          	jal	800011d6 <uvmunmap>
    80001a0c:	4581                	li	a1,0
    80001a0e:	8526                	mv	a0,s1
    80001a10:	97bff0ef          	jal	8000138a <uvmfree>
    80001a14:	4481                	li	s1,0
    80001a16:	b7e9                	j	800019e0 <proc_pagetable+0x4c>

0000000080001a18 <proc_freepagetable>:
    80001a18:	1101                	add	sp,sp,-32
    80001a1a:	ec06                	sd	ra,24(sp)
    80001a1c:	e822                	sd	s0,16(sp)
    80001a1e:	e426                	sd	s1,8(sp)
    80001a20:	e04a                	sd	s2,0(sp)
    80001a22:	1000                	add	s0,sp,32
    80001a24:	84aa                	mv	s1,a0
    80001a26:	892e                	mv	s2,a1
    80001a28:	4681                	li	a3,0
    80001a2a:	4605                	li	a2,1
    80001a2c:	040005b7          	lui	a1,0x4000
    80001a30:	15fd                	add	a1,a1,-1 # 3ffffff <_entry-0x7c000001>
    80001a32:	05b2                	sll	a1,a1,0xc
    80001a34:	fa2ff0ef          	jal	800011d6 <uvmunmap>
    80001a38:	4681                	li	a3,0
    80001a3a:	4605                	li	a2,1
    80001a3c:	020005b7          	lui	a1,0x2000
    80001a40:	15fd                	add	a1,a1,-1 # 1ffffff <_entry-0x7e000001>
    80001a42:	05b6                	sll	a1,a1,0xd
    80001a44:	8526                	mv	a0,s1
    80001a46:	f90ff0ef          	jal	800011d6 <uvmunmap>
    80001a4a:	85ca                	mv	a1,s2
    80001a4c:	8526                	mv	a0,s1
    80001a4e:	93dff0ef          	jal	8000138a <uvmfree>
    80001a52:	60e2                	ld	ra,24(sp)
    80001a54:	6442                	ld	s0,16(sp)
    80001a56:	64a2                	ld	s1,8(sp)
    80001a58:	6902                	ld	s2,0(sp)
    80001a5a:	6105                	add	sp,sp,32
    80001a5c:	8082                	ret

0000000080001a5e <freeproc>:
    80001a5e:	1101                	add	sp,sp,-32
    80001a60:	ec06                	sd	ra,24(sp)
    80001a62:	e822                	sd	s0,16(sp)
    80001a64:	e426                	sd	s1,8(sp)
    80001a66:	1000                	add	s0,sp,32
    80001a68:	84aa                	mv	s1,a0
    80001a6a:	6d28                	ld	a0,88(a0)
    80001a6c:	c119                	beqz	a0,80001a72 <freeproc+0x14>
    80001a6e:	f97fe0ef          	jal	80000a04 <kfree>
    80001a72:	0404bc23          	sd	zero,88(s1)
    80001a76:	68a8                	ld	a0,80(s1)
    80001a78:	c501                	beqz	a0,80001a80 <freeproc+0x22>
    80001a7a:	64ac                	ld	a1,72(s1)
    80001a7c:	f9dff0ef          	jal	80001a18 <proc_freepagetable>
    80001a80:	0404b823          	sd	zero,80(s1)
    80001a84:	0404b423          	sd	zero,72(s1)
    80001a88:	0204a823          	sw	zero,48(s1)
    80001a8c:	0204bc23          	sd	zero,56(s1)
    80001a90:	14048c23          	sb	zero,344(s1)
    80001a94:	0204b023          	sd	zero,32(s1)
    80001a98:	0204a423          	sw	zero,40(s1)
    80001a9c:	0204a623          	sw	zero,44(s1)
    80001aa0:	0004ac23          	sw	zero,24(s1)
    80001aa4:	60e2                	ld	ra,24(sp)
    80001aa6:	6442                	ld	s0,16(sp)
    80001aa8:	64a2                	ld	s1,8(sp)
    80001aaa:	6105                	add	sp,sp,32
    80001aac:	8082                	ret

0000000080001aae <allocproc>:
    80001aae:	1101                	add	sp,sp,-32
    80001ab0:	ec06                	sd	ra,24(sp)
    80001ab2:	e822                	sd	s0,16(sp)
    80001ab4:	e426                	sd	s1,8(sp)
    80001ab6:	e04a                	sd	s2,0(sp)
    80001ab8:	1000                	add	s0,sp,32
    80001aba:	0000e497          	auipc	s1,0xe
    80001abe:	2ce48493          	add	s1,s1,718 # 8000fd88 <proc>
    80001ac2:	00014917          	auipc	s2,0x14
    80001ac6:	cc690913          	add	s2,s2,-826 # 80015788 <tickslock>
    80001aca:	8526                	mv	a0,s1
    80001acc:	8eaff0ef          	jal	80000bb6 <acquire>
    80001ad0:	4c9c                	lw	a5,24(s1)
    80001ad2:	cb91                	beqz	a5,80001ae6 <allocproc+0x38>
    80001ad4:	8526                	mv	a0,s1
    80001ad6:	978ff0ef          	jal	80000c4e <release>
    80001ada:	16848493          	add	s1,s1,360
    80001ade:	ff2496e3          	bne	s1,s2,80001aca <allocproc+0x1c>
    80001ae2:	4481                	li	s1,0
    80001ae4:	a089                	j	80001b26 <allocproc+0x78>
    80001ae6:	e71ff0ef          	jal	80001956 <allocpid>
    80001aea:	d888                	sw	a0,48(s1)
    80001aec:	4785                	li	a5,1
    80001aee:	cc9c                	sw	a5,24(s1)
    80001af0:	ff7fe0ef          	jal	80000ae6 <kalloc>
    80001af4:	892a                	mv	s2,a0
    80001af6:	eca8                	sd	a0,88(s1)
    80001af8:	cd15                	beqz	a0,80001b34 <allocproc+0x86>
    80001afa:	8526                	mv	a0,s1
    80001afc:	e99ff0ef          	jal	80001994 <proc_pagetable>
    80001b00:	892a                	mv	s2,a0
    80001b02:	e8a8                	sd	a0,80(s1)
    80001b04:	c121                	beqz	a0,80001b44 <allocproc+0x96>
    80001b06:	07000613          	li	a2,112
    80001b0a:	4581                	li	a1,0
    80001b0c:	06048513          	add	a0,s1,96
    80001b10:	97aff0ef          	jal	80000c8a <memset>
    80001b14:	00000797          	auipc	a5,0x0
    80001b18:	da878793          	add	a5,a5,-600 # 800018bc <forkret>
    80001b1c:	f0bc                	sd	a5,96(s1)
    80001b1e:	60bc                	ld	a5,64(s1)
    80001b20:	6705                	lui	a4,0x1
    80001b22:	97ba                	add	a5,a5,a4
    80001b24:	f4bc                	sd	a5,104(s1)
    80001b26:	8526                	mv	a0,s1
    80001b28:	60e2                	ld	ra,24(sp)
    80001b2a:	6442                	ld	s0,16(sp)
    80001b2c:	64a2                	ld	s1,8(sp)
    80001b2e:	6902                	ld	s2,0(sp)
    80001b30:	6105                	add	sp,sp,32
    80001b32:	8082                	ret
    80001b34:	8526                	mv	a0,s1
    80001b36:	f29ff0ef          	jal	80001a5e <freeproc>
    80001b3a:	8526                	mv	a0,s1
    80001b3c:	912ff0ef          	jal	80000c4e <release>
    80001b40:	84ca                	mv	s1,s2
    80001b42:	b7d5                	j	80001b26 <allocproc+0x78>
    80001b44:	8526                	mv	a0,s1
    80001b46:	f19ff0ef          	jal	80001a5e <freeproc>
    80001b4a:	8526                	mv	a0,s1
    80001b4c:	902ff0ef          	jal	80000c4e <release>
    80001b50:	84ca                	mv	s1,s2
    80001b52:	bfd1                	j	80001b26 <allocproc+0x78>

0000000080001b54 <userinit>:
    80001b54:	1101                	add	sp,sp,-32
    80001b56:	ec06                	sd	ra,24(sp)
    80001b58:	e822                	sd	s0,16(sp)
    80001b5a:	e426                	sd	s1,8(sp)
    80001b5c:	1000                	add	s0,sp,32
    80001b5e:	f51ff0ef          	jal	80001aae <allocproc>
    80001b62:	84aa                	mv	s1,a0
    80001b64:	00006797          	auipc	a5,0x6
    80001b68:	cea7b623          	sd	a0,-788(a5) # 80007850 <initproc>
    80001b6c:	00005517          	auipc	a0,0x5
    80001b70:	66c50513          	add	a0,a0,1644 # 800071d8 <states.1753+0x68>
    80001b74:	641010ef          	jal	800039b4 <namei>
    80001b78:	14a4b823          	sd	a0,336(s1)
    80001b7c:	478d                	li	a5,3
    80001b7e:	cc9c                	sw	a5,24(s1)
    80001b80:	8526                	mv	a0,s1
    80001b82:	8ccff0ef          	jal	80000c4e <release>
    80001b86:	60e2                	ld	ra,24(sp)
    80001b88:	6442                	ld	s0,16(sp)
    80001b8a:	64a2                	ld	s1,8(sp)
    80001b8c:	6105                	add	sp,sp,32
    80001b8e:	8082                	ret

0000000080001b90 <growproc>:
    80001b90:	1101                	add	sp,sp,-32
    80001b92:	ec06                	sd	ra,24(sp)
    80001b94:	e822                	sd	s0,16(sp)
    80001b96:	e426                	sd	s1,8(sp)
    80001b98:	e04a                	sd	s2,0(sp)
    80001b9a:	1000                	add	s0,sp,32
    80001b9c:	84aa                	mv	s1,a0
    80001b9e:	cefff0ef          	jal	8000188c <myproc>
    80001ba2:	892a                	mv	s2,a0
    80001ba4:	652c                	ld	a1,72(a0)
    80001ba6:	02905963          	blez	s1,80001bd8 <growproc+0x48>
    80001baa:	00b48633          	add	a2,s1,a1
    80001bae:	020007b7          	lui	a5,0x2000
    80001bb2:	17fd                	add	a5,a5,-1 # 1ffffff <_entry-0x7e000001>
    80001bb4:	07b6                	sll	a5,a5,0xd
    80001bb6:	02c7ea63          	bltu	a5,a2,80001bea <growproc+0x5a>
    80001bba:	4691                	li	a3,4
    80001bbc:	6928                	ld	a0,80(a0)
    80001bbe:	ed4ff0ef          	jal	80001292 <uvmalloc>
    80001bc2:	85aa                	mv	a1,a0
    80001bc4:	c50d                	beqz	a0,80001bee <growproc+0x5e>
    80001bc6:	04b93423          	sd	a1,72(s2)
    80001bca:	4501                	li	a0,0
    80001bcc:	60e2                	ld	ra,24(sp)
    80001bce:	6442                	ld	s0,16(sp)
    80001bd0:	64a2                	ld	s1,8(sp)
    80001bd2:	6902                	ld	s2,0(sp)
    80001bd4:	6105                	add	sp,sp,32
    80001bd6:	8082                	ret
    80001bd8:	fe04d7e3          	bgez	s1,80001bc6 <growproc+0x36>
    80001bdc:	00b48633          	add	a2,s1,a1
    80001be0:	6928                	ld	a0,80(a0)
    80001be2:	e6eff0ef          	jal	80001250 <uvmdealloc>
    80001be6:	85aa                	mv	a1,a0
    80001be8:	bff9                	j	80001bc6 <growproc+0x36>
    80001bea:	557d                	li	a0,-1
    80001bec:	b7c5                	j	80001bcc <growproc+0x3c>
    80001bee:	557d                	li	a0,-1
    80001bf0:	bff1                	j	80001bcc <growproc+0x3c>

0000000080001bf2 <kfork>:
    80001bf2:	7179                	add	sp,sp,-48
    80001bf4:	f406                	sd	ra,40(sp)
    80001bf6:	f022                	sd	s0,32(sp)
    80001bf8:	ec26                	sd	s1,24(sp)
    80001bfa:	e84a                	sd	s2,16(sp)
    80001bfc:	e44e                	sd	s3,8(sp)
    80001bfe:	e052                	sd	s4,0(sp)
    80001c00:	1800                	add	s0,sp,48
    80001c02:	c8bff0ef          	jal	8000188c <myproc>
    80001c06:	892a                	mv	s2,a0
    80001c08:	ea7ff0ef          	jal	80001aae <allocproc>
    80001c0c:	0e050563          	beqz	a0,80001cf6 <kfork+0x104>
    80001c10:	89aa                	mv	s3,a0
    80001c12:	04893603          	ld	a2,72(s2)
    80001c16:	692c                	ld	a1,80(a0)
    80001c18:	05093503          	ld	a0,80(s2)
    80001c1c:	f9eff0ef          	jal	800013ba <uvmcopy>
    80001c20:	04054663          	bltz	a0,80001c6c <kfork+0x7a>
    80001c24:	04893783          	ld	a5,72(s2)
    80001c28:	04f9b423          	sd	a5,72(s3)
    80001c2c:	05893683          	ld	a3,88(s2)
    80001c30:	87b6                	mv	a5,a3
    80001c32:	0589b703          	ld	a4,88(s3)
    80001c36:	12068693          	add	a3,a3,288
    80001c3a:	0007b803          	ld	a6,0(a5)
    80001c3e:	6788                	ld	a0,8(a5)
    80001c40:	6b8c                	ld	a1,16(a5)
    80001c42:	6f90                	ld	a2,24(a5)
    80001c44:	01073023          	sd	a6,0(a4) # 1000 <_entry-0x7ffff000>
    80001c48:	e708                	sd	a0,8(a4)
    80001c4a:	eb0c                	sd	a1,16(a4)
    80001c4c:	ef10                	sd	a2,24(a4)
    80001c4e:	02078793          	add	a5,a5,32
    80001c52:	02070713          	add	a4,a4,32
    80001c56:	fed792e3          	bne	a5,a3,80001c3a <kfork+0x48>
    80001c5a:	0589b783          	ld	a5,88(s3)
    80001c5e:	0607b823          	sd	zero,112(a5)
    80001c62:	0d000493          	li	s1,208
    80001c66:	15000a13          	li	s4,336
    80001c6a:	a00d                	j	80001c8c <kfork+0x9a>
    80001c6c:	854e                	mv	a0,s3
    80001c6e:	df1ff0ef          	jal	80001a5e <freeproc>
    80001c72:	854e                	mv	a0,s3
    80001c74:	fdbfe0ef          	jal	80000c4e <release>
    80001c78:	5a7d                	li	s4,-1
    80001c7a:	a0ad                	j	80001ce4 <kfork+0xf2>
    80001c7c:	324020ef          	jal	80003fa0 <filedup>
    80001c80:	009987b3          	add	a5,s3,s1
    80001c84:	e388                	sd	a0,0(a5)
    80001c86:	04a1                	add	s1,s1,8
    80001c88:	01448763          	beq	s1,s4,80001c96 <kfork+0xa4>
    80001c8c:	009907b3          	add	a5,s2,s1
    80001c90:	6388                	ld	a0,0(a5)
    80001c92:	f56d                	bnez	a0,80001c7c <kfork+0x8a>
    80001c94:	bfcd                	j	80001c86 <kfork+0x94>
    80001c96:	15093503          	ld	a0,336(s2)
    80001c9a:	4ea010ef          	jal	80003184 <idup>
    80001c9e:	14a9b823          	sd	a0,336(s3)
    80001ca2:	4641                	li	a2,16
    80001ca4:	15890593          	add	a1,s2,344
    80001ca8:	15898513          	add	a0,s3,344
    80001cac:	94eff0ef          	jal	80000dfa <safestrcpy>
    80001cb0:	0309aa03          	lw	s4,48(s3)
    80001cb4:	854e                	mv	a0,s3
    80001cb6:	f99fe0ef          	jal	80000c4e <release>
    80001cba:	0000e497          	auipc	s1,0xe
    80001cbe:	cb648493          	add	s1,s1,-842 # 8000f970 <wait_lock>
    80001cc2:	8526                	mv	a0,s1
    80001cc4:	ef3fe0ef          	jal	80000bb6 <acquire>
    80001cc8:	0329bc23          	sd	s2,56(s3)
    80001ccc:	8526                	mv	a0,s1
    80001cce:	f81fe0ef          	jal	80000c4e <release>
    80001cd2:	854e                	mv	a0,s3
    80001cd4:	ee3fe0ef          	jal	80000bb6 <acquire>
    80001cd8:	478d                	li	a5,3
    80001cda:	00f9ac23          	sw	a5,24(s3)
    80001cde:	854e                	mv	a0,s3
    80001ce0:	f6ffe0ef          	jal	80000c4e <release>
    80001ce4:	8552                	mv	a0,s4
    80001ce6:	70a2                	ld	ra,40(sp)
    80001ce8:	7402                	ld	s0,32(sp)
    80001cea:	64e2                	ld	s1,24(sp)
    80001cec:	6942                	ld	s2,16(sp)
    80001cee:	69a2                	ld	s3,8(sp)
    80001cf0:	6a02                	ld	s4,0(sp)
    80001cf2:	6145                	add	sp,sp,48
    80001cf4:	8082                	ret
    80001cf6:	5a7d                	li	s4,-1
    80001cf8:	b7f5                	j	80001ce4 <kfork+0xf2>

0000000080001cfa <scheduler>:
    80001cfa:	715d                	add	sp,sp,-80
    80001cfc:	e486                	sd	ra,72(sp)
    80001cfe:	e0a2                	sd	s0,64(sp)
    80001d00:	fc26                	sd	s1,56(sp)
    80001d02:	f84a                	sd	s2,48(sp)
    80001d04:	f44e                	sd	s3,40(sp)
    80001d06:	f052                	sd	s4,32(sp)
    80001d08:	ec56                	sd	s5,24(sp)
    80001d0a:	e85a                	sd	s6,16(sp)
    80001d0c:	e45e                	sd	s7,8(sp)
    80001d0e:	e062                	sd	s8,0(sp)
    80001d10:	0880                	add	s0,sp,80
    80001d12:	8792                	mv	a5,tp
    80001d14:	2781                	sext.w	a5,a5
    80001d16:	00779b13          	sll	s6,a5,0x7
    80001d1a:	0000e717          	auipc	a4,0xe
    80001d1e:	c3e70713          	add	a4,a4,-962 # 8000f958 <pid_lock>
    80001d22:	975a                	add	a4,a4,s6
    80001d24:	02073823          	sd	zero,48(a4)
    80001d28:	0000e717          	auipc	a4,0xe
    80001d2c:	c6870713          	add	a4,a4,-920 # 8000f990 <cpus+0x8>
    80001d30:	9b3a                	add	s6,s6,a4
    80001d32:	4c11                	li	s8,4
    80001d34:	079e                	sll	a5,a5,0x7
    80001d36:	0000ea17          	auipc	s4,0xe
    80001d3a:	c22a0a13          	add	s4,s4,-990 # 8000f958 <pid_lock>
    80001d3e:	9a3e                	add	s4,s4,a5
    80001d40:	00014997          	auipc	s3,0x14
    80001d44:	a4898993          	add	s3,s3,-1464 # 80015788 <tickslock>
    80001d48:	4b85                	li	s7,1
    80001d4a:	a83d                	j	80001d88 <scheduler+0x8e>
    80001d4c:	0184ac23          	sw	s8,24(s1)
    80001d50:	029a3823          	sd	s1,48(s4)
    80001d54:	06048593          	add	a1,s1,96
    80001d58:	855a                	mv	a0,s6
    80001d5a:	5d0000ef          	jal	8000232a <swtch>
    80001d5e:	020a3823          	sd	zero,48(s4)
    80001d62:	8ade                	mv	s5,s7
    80001d64:	8526                	mv	a0,s1
    80001d66:	ee9fe0ef          	jal	80000c4e <release>
    80001d6a:	16848493          	add	s1,s1,360
    80001d6e:	01348963          	beq	s1,s3,80001d80 <scheduler+0x86>
    80001d72:	8526                	mv	a0,s1
    80001d74:	e43fe0ef          	jal	80000bb6 <acquire>
    80001d78:	4c9c                	lw	a5,24(s1)
    80001d7a:	ff2795e3          	bne	a5,s2,80001d64 <scheduler+0x6a>
    80001d7e:	b7f9                	j	80001d4c <scheduler+0x52>
    80001d80:	000a9463          	bnez	s5,80001d88 <scheduler+0x8e>
    80001d84:	10500073          	wfi
    80001d88:	100027f3          	csrr	a5,sstatus
    80001d8c:	0027e793          	or	a5,a5,2
    80001d90:	10079073          	csrw	sstatus,a5
    80001d94:	100027f3          	csrr	a5,sstatus
    80001d98:	9bf5                	and	a5,a5,-3
    80001d9a:	10079073          	csrw	sstatus,a5
    80001d9e:	4a81                	li	s5,0
    80001da0:	0000e497          	auipc	s1,0xe
    80001da4:	fe848493          	add	s1,s1,-24 # 8000fd88 <proc>
    80001da8:	490d                	li	s2,3
    80001daa:	b7e1                	j	80001d72 <scheduler+0x78>

0000000080001dac <sched>:
    80001dac:	7179                	add	sp,sp,-48
    80001dae:	f406                	sd	ra,40(sp)
    80001db0:	f022                	sd	s0,32(sp)
    80001db2:	ec26                	sd	s1,24(sp)
    80001db4:	e84a                	sd	s2,16(sp)
    80001db6:	e44e                	sd	s3,8(sp)
    80001db8:	1800                	add	s0,sp,48
    80001dba:	ad3ff0ef          	jal	8000188c <myproc>
    80001dbe:	892a                	mv	s2,a0
    80001dc0:	d8dfe0ef          	jal	80000b4c <holding>
    80001dc4:	c935                	beqz	a0,80001e38 <sched+0x8c>
    80001dc6:	8792                	mv	a5,tp
    80001dc8:	2781                	sext.w	a5,a5
    80001dca:	079e                	sll	a5,a5,0x7
    80001dcc:	0000e717          	auipc	a4,0xe
    80001dd0:	b8c70713          	add	a4,a4,-1140 # 8000f958 <pid_lock>
    80001dd4:	97ba                	add	a5,a5,a4
    80001dd6:	0a87a703          	lw	a4,168(a5)
    80001dda:	4785                	li	a5,1
    80001ddc:	06f71463          	bne	a4,a5,80001e44 <sched+0x98>
    80001de0:	01892703          	lw	a4,24(s2)
    80001de4:	4791                	li	a5,4
    80001de6:	06f70563          	beq	a4,a5,80001e50 <sched+0xa4>
    80001dea:	100027f3          	csrr	a5,sstatus
    80001dee:	8b89                	and	a5,a5,2
    80001df0:	e7b5                	bnez	a5,80001e5c <sched+0xb0>
    80001df2:	8792                	mv	a5,tp
    80001df4:	0000e497          	auipc	s1,0xe
    80001df8:	b6448493          	add	s1,s1,-1180 # 8000f958 <pid_lock>
    80001dfc:	2781                	sext.w	a5,a5
    80001dfe:	079e                	sll	a5,a5,0x7
    80001e00:	97a6                	add	a5,a5,s1
    80001e02:	0ac7a983          	lw	s3,172(a5)
    80001e06:	8792                	mv	a5,tp
    80001e08:	2781                	sext.w	a5,a5
    80001e0a:	079e                	sll	a5,a5,0x7
    80001e0c:	0000e597          	auipc	a1,0xe
    80001e10:	b8458593          	add	a1,a1,-1148 # 8000f990 <cpus+0x8>
    80001e14:	95be                	add	a1,a1,a5
    80001e16:	06090513          	add	a0,s2,96
    80001e1a:	510000ef          	jal	8000232a <swtch>
    80001e1e:	8792                	mv	a5,tp
    80001e20:	2781                	sext.w	a5,a5
    80001e22:	079e                	sll	a5,a5,0x7
    80001e24:	97a6                	add	a5,a5,s1
    80001e26:	0b37a623          	sw	s3,172(a5)
    80001e2a:	70a2                	ld	ra,40(sp)
    80001e2c:	7402                	ld	s0,32(sp)
    80001e2e:	64e2                	ld	s1,24(sp)
    80001e30:	6942                	ld	s2,16(sp)
    80001e32:	69a2                	ld	s3,8(sp)
    80001e34:	6145                	add	sp,sp,48
    80001e36:	8082                	ret
    80001e38:	00005517          	auipc	a0,0x5
    80001e3c:	3a850513          	add	a0,a0,936 # 800071e0 <states.1753+0x70>
    80001e40:	983fe0ef          	jal	800007c2 <panic>
    80001e44:	00005517          	auipc	a0,0x5
    80001e48:	3ac50513          	add	a0,a0,940 # 800071f0 <states.1753+0x80>
    80001e4c:	977fe0ef          	jal	800007c2 <panic>
    80001e50:	00005517          	auipc	a0,0x5
    80001e54:	3b050513          	add	a0,a0,944 # 80007200 <states.1753+0x90>
    80001e58:	96bfe0ef          	jal	800007c2 <panic>
    80001e5c:	00005517          	auipc	a0,0x5
    80001e60:	3b450513          	add	a0,a0,948 # 80007210 <states.1753+0xa0>
    80001e64:	95ffe0ef          	jal	800007c2 <panic>

0000000080001e68 <yield>:
    80001e68:	1101                	add	sp,sp,-32
    80001e6a:	ec06                	sd	ra,24(sp)
    80001e6c:	e822                	sd	s0,16(sp)
    80001e6e:	e426                	sd	s1,8(sp)
    80001e70:	1000                	add	s0,sp,32
    80001e72:	a1bff0ef          	jal	8000188c <myproc>
    80001e76:	84aa                	mv	s1,a0
    80001e78:	d3ffe0ef          	jal	80000bb6 <acquire>
    80001e7c:	478d                	li	a5,3
    80001e7e:	cc9c                	sw	a5,24(s1)
    80001e80:	f2dff0ef          	jal	80001dac <sched>
    80001e84:	8526                	mv	a0,s1
    80001e86:	dc9fe0ef          	jal	80000c4e <release>
    80001e8a:	60e2                	ld	ra,24(sp)
    80001e8c:	6442                	ld	s0,16(sp)
    80001e8e:	64a2                	ld	s1,8(sp)
    80001e90:	6105                	add	sp,sp,32
    80001e92:	8082                	ret

0000000080001e94 <sleep>:
    80001e94:	7179                	add	sp,sp,-48
    80001e96:	f406                	sd	ra,40(sp)
    80001e98:	f022                	sd	s0,32(sp)
    80001e9a:	ec26                	sd	s1,24(sp)
    80001e9c:	e84a                	sd	s2,16(sp)
    80001e9e:	e44e                	sd	s3,8(sp)
    80001ea0:	1800                	add	s0,sp,48
    80001ea2:	89aa                	mv	s3,a0
    80001ea4:	892e                	mv	s2,a1
    80001ea6:	9e7ff0ef          	jal	8000188c <myproc>
    80001eaa:	84aa                	mv	s1,a0
    80001eac:	d0bfe0ef          	jal	80000bb6 <acquire>
    80001eb0:	854a                	mv	a0,s2
    80001eb2:	d9dfe0ef          	jal	80000c4e <release>
    80001eb6:	0334b023          	sd	s3,32(s1)
    80001eba:	4789                	li	a5,2
    80001ebc:	cc9c                	sw	a5,24(s1)
    80001ebe:	eefff0ef          	jal	80001dac <sched>
    80001ec2:	0204b023          	sd	zero,32(s1)
    80001ec6:	8526                	mv	a0,s1
    80001ec8:	d87fe0ef          	jal	80000c4e <release>
    80001ecc:	854a                	mv	a0,s2
    80001ece:	ce9fe0ef          	jal	80000bb6 <acquire>
    80001ed2:	70a2                	ld	ra,40(sp)
    80001ed4:	7402                	ld	s0,32(sp)
    80001ed6:	64e2                	ld	s1,24(sp)
    80001ed8:	6942                	ld	s2,16(sp)
    80001eda:	69a2                	ld	s3,8(sp)
    80001edc:	6145                	add	sp,sp,48
    80001ede:	8082                	ret

0000000080001ee0 <wakeup>:
    80001ee0:	7139                	add	sp,sp,-64
    80001ee2:	fc06                	sd	ra,56(sp)
    80001ee4:	f822                	sd	s0,48(sp)
    80001ee6:	f426                	sd	s1,40(sp)
    80001ee8:	f04a                	sd	s2,32(sp)
    80001eea:	ec4e                	sd	s3,24(sp)
    80001eec:	e852                	sd	s4,16(sp)
    80001eee:	e456                	sd	s5,8(sp)
    80001ef0:	0080                	add	s0,sp,64
    80001ef2:	8a2a                	mv	s4,a0
    80001ef4:	0000e497          	auipc	s1,0xe
    80001ef8:	e9448493          	add	s1,s1,-364 # 8000fd88 <proc>
    80001efc:	4989                	li	s3,2
    80001efe:	4a8d                	li	s5,3
    80001f00:	00014917          	auipc	s2,0x14
    80001f04:	88890913          	add	s2,s2,-1912 # 80015788 <tickslock>
    80001f08:	a811                	j	80001f1c <wakeup+0x3c>
    80001f0a:	0154ac23          	sw	s5,24(s1)
    80001f0e:	8526                	mv	a0,s1
    80001f10:	d3ffe0ef          	jal	80000c4e <release>
    80001f14:	16848493          	add	s1,s1,360
    80001f18:	03248063          	beq	s1,s2,80001f38 <wakeup+0x58>
    80001f1c:	971ff0ef          	jal	8000188c <myproc>
    80001f20:	fea48ae3          	beq	s1,a0,80001f14 <wakeup+0x34>
    80001f24:	8526                	mv	a0,s1
    80001f26:	c91fe0ef          	jal	80000bb6 <acquire>
    80001f2a:	4c9c                	lw	a5,24(s1)
    80001f2c:	ff3791e3          	bne	a5,s3,80001f0e <wakeup+0x2e>
    80001f30:	709c                	ld	a5,32(s1)
    80001f32:	fd479ee3          	bne	a5,s4,80001f0e <wakeup+0x2e>
    80001f36:	bfd1                	j	80001f0a <wakeup+0x2a>
    80001f38:	70e2                	ld	ra,56(sp)
    80001f3a:	7442                	ld	s0,48(sp)
    80001f3c:	74a2                	ld	s1,40(sp)
    80001f3e:	7902                	ld	s2,32(sp)
    80001f40:	69e2                	ld	s3,24(sp)
    80001f42:	6a42                	ld	s4,16(sp)
    80001f44:	6aa2                	ld	s5,8(sp)
    80001f46:	6121                	add	sp,sp,64
    80001f48:	8082                	ret

0000000080001f4a <reparent>:
    80001f4a:	7179                	add	sp,sp,-48
    80001f4c:	f406                	sd	ra,40(sp)
    80001f4e:	f022                	sd	s0,32(sp)
    80001f50:	ec26                	sd	s1,24(sp)
    80001f52:	e84a                	sd	s2,16(sp)
    80001f54:	e44e                	sd	s3,8(sp)
    80001f56:	e052                	sd	s4,0(sp)
    80001f58:	1800                	add	s0,sp,48
    80001f5a:	89aa                	mv	s3,a0
    80001f5c:	0000e497          	auipc	s1,0xe
    80001f60:	e2c48493          	add	s1,s1,-468 # 8000fd88 <proc>
    80001f64:	00006a17          	auipc	s4,0x6
    80001f68:	8eca0a13          	add	s4,s4,-1812 # 80007850 <initproc>
    80001f6c:	00014917          	auipc	s2,0x14
    80001f70:	81c90913          	add	s2,s2,-2020 # 80015788 <tickslock>
    80001f74:	a029                	j	80001f7e <reparent+0x34>
    80001f76:	16848493          	add	s1,s1,360
    80001f7a:	01248b63          	beq	s1,s2,80001f90 <reparent+0x46>
    80001f7e:	7c9c                	ld	a5,56(s1)
    80001f80:	ff379be3          	bne	a5,s3,80001f76 <reparent+0x2c>
    80001f84:	000a3503          	ld	a0,0(s4)
    80001f88:	fc88                	sd	a0,56(s1)
    80001f8a:	f57ff0ef          	jal	80001ee0 <wakeup>
    80001f8e:	b7e5                	j	80001f76 <reparent+0x2c>
    80001f90:	70a2                	ld	ra,40(sp)
    80001f92:	7402                	ld	s0,32(sp)
    80001f94:	64e2                	ld	s1,24(sp)
    80001f96:	6942                	ld	s2,16(sp)
    80001f98:	69a2                	ld	s3,8(sp)
    80001f9a:	6a02                	ld	s4,0(sp)
    80001f9c:	6145                	add	sp,sp,48
    80001f9e:	8082                	ret

0000000080001fa0 <kexit>:
    80001fa0:	7179                	add	sp,sp,-48
    80001fa2:	f406                	sd	ra,40(sp)
    80001fa4:	f022                	sd	s0,32(sp)
    80001fa6:	ec26                	sd	s1,24(sp)
    80001fa8:	e84a                	sd	s2,16(sp)
    80001faa:	e44e                	sd	s3,8(sp)
    80001fac:	e052                	sd	s4,0(sp)
    80001fae:	1800                	add	s0,sp,48
    80001fb0:	8a2a                	mv	s4,a0
    80001fb2:	8dbff0ef          	jal	8000188c <myproc>
    80001fb6:	89aa                	mv	s3,a0
    80001fb8:	00006797          	auipc	a5,0x6
    80001fbc:	89878793          	add	a5,a5,-1896 # 80007850 <initproc>
    80001fc0:	639c                	ld	a5,0(a5)
    80001fc2:	0d050493          	add	s1,a0,208
    80001fc6:	15050913          	add	s2,a0,336
    80001fca:	00a79f63          	bne	a5,a0,80001fe8 <kexit+0x48>
    80001fce:	00005517          	auipc	a0,0x5
    80001fd2:	25a50513          	add	a0,a0,602 # 80007228 <states.1753+0xb8>
    80001fd6:	fecfe0ef          	jal	800007c2 <panic>
    80001fda:	00c020ef          	jal	80003fe6 <fileclose>
    80001fde:	0004b023          	sd	zero,0(s1)
    80001fe2:	04a1                	add	s1,s1,8
    80001fe4:	01248563          	beq	s1,s2,80001fee <kexit+0x4e>
    80001fe8:	6088                	ld	a0,0(s1)
    80001fea:	f965                	bnez	a0,80001fda <kexit+0x3a>
    80001fec:	bfdd                	j	80001fe2 <kexit+0x42>
    80001fee:	3b7010ef          	jal	80003ba4 <begin_op>
    80001ff2:	1509b503          	ld	a0,336(s3)
    80001ff6:	344010ef          	jal	8000333a <iput>
    80001ffa:	41b010ef          	jal	80003c14 <end_op>
    80001ffe:	1409b823          	sd	zero,336(s3)
    80002002:	0000e497          	auipc	s1,0xe
    80002006:	96e48493          	add	s1,s1,-1682 # 8000f970 <wait_lock>
    8000200a:	8526                	mv	a0,s1
    8000200c:	babfe0ef          	jal	80000bb6 <acquire>
    80002010:	854e                	mv	a0,s3
    80002012:	f39ff0ef          	jal	80001f4a <reparent>
    80002016:	0389b503          	ld	a0,56(s3)
    8000201a:	ec7ff0ef          	jal	80001ee0 <wakeup>
    8000201e:	854e                	mv	a0,s3
    80002020:	b97fe0ef          	jal	80000bb6 <acquire>
    80002024:	0349a623          	sw	s4,44(s3)
    80002028:	4795                	li	a5,5
    8000202a:	00f9ac23          	sw	a5,24(s3)
    8000202e:	8526                	mv	a0,s1
    80002030:	c1ffe0ef          	jal	80000c4e <release>
    80002034:	d79ff0ef          	jal	80001dac <sched>
    80002038:	00005517          	auipc	a0,0x5
    8000203c:	20050513          	add	a0,a0,512 # 80007238 <states.1753+0xc8>
    80002040:	f82fe0ef          	jal	800007c2 <panic>

0000000080002044 <kkill>:
    80002044:	7179                	add	sp,sp,-48
    80002046:	f406                	sd	ra,40(sp)
    80002048:	f022                	sd	s0,32(sp)
    8000204a:	ec26                	sd	s1,24(sp)
    8000204c:	e84a                	sd	s2,16(sp)
    8000204e:	e44e                	sd	s3,8(sp)
    80002050:	1800                	add	s0,sp,48
    80002052:	892a                	mv	s2,a0
    80002054:	0000e497          	auipc	s1,0xe
    80002058:	d3448493          	add	s1,s1,-716 # 8000fd88 <proc>
    8000205c:	00013997          	auipc	s3,0x13
    80002060:	72c98993          	add	s3,s3,1836 # 80015788 <tickslock>
    80002064:	8526                	mv	a0,s1
    80002066:	b51fe0ef          	jal	80000bb6 <acquire>
    8000206a:	589c                	lw	a5,48(s1)
    8000206c:	01278b63          	beq	a5,s2,80002082 <kkill+0x3e>
    80002070:	8526                	mv	a0,s1
    80002072:	bddfe0ef          	jal	80000c4e <release>
    80002076:	16848493          	add	s1,s1,360
    8000207a:	ff3495e3          	bne	s1,s3,80002064 <kkill+0x20>
    8000207e:	557d                	li	a0,-1
    80002080:	a819                	j	80002096 <kkill+0x52>
    80002082:	4785                	li	a5,1
    80002084:	d49c                	sw	a5,40(s1)
    80002086:	4c98                	lw	a4,24(s1)
    80002088:	4789                	li	a5,2
    8000208a:	00f70d63          	beq	a4,a5,800020a4 <kkill+0x60>
    8000208e:	8526                	mv	a0,s1
    80002090:	bbffe0ef          	jal	80000c4e <release>
    80002094:	4501                	li	a0,0
    80002096:	70a2                	ld	ra,40(sp)
    80002098:	7402                	ld	s0,32(sp)
    8000209a:	64e2                	ld	s1,24(sp)
    8000209c:	6942                	ld	s2,16(sp)
    8000209e:	69a2                	ld	s3,8(sp)
    800020a0:	6145                	add	sp,sp,48
    800020a2:	8082                	ret
    800020a4:	478d                	li	a5,3
    800020a6:	cc9c                	sw	a5,24(s1)
    800020a8:	b7dd                	j	8000208e <kkill+0x4a>

00000000800020aa <setkilled>:
    800020aa:	1101                	add	sp,sp,-32
    800020ac:	ec06                	sd	ra,24(sp)
    800020ae:	e822                	sd	s0,16(sp)
    800020b0:	e426                	sd	s1,8(sp)
    800020b2:	1000                	add	s0,sp,32
    800020b4:	84aa                	mv	s1,a0
    800020b6:	b01fe0ef          	jal	80000bb6 <acquire>
    800020ba:	4785                	li	a5,1
    800020bc:	d49c                	sw	a5,40(s1)
    800020be:	8526                	mv	a0,s1
    800020c0:	b8ffe0ef          	jal	80000c4e <release>
    800020c4:	60e2                	ld	ra,24(sp)
    800020c6:	6442                	ld	s0,16(sp)
    800020c8:	64a2                	ld	s1,8(sp)
    800020ca:	6105                	add	sp,sp,32
    800020cc:	8082                	ret

00000000800020ce <killed>:
    800020ce:	1101                	add	sp,sp,-32
    800020d0:	ec06                	sd	ra,24(sp)
    800020d2:	e822                	sd	s0,16(sp)
    800020d4:	e426                	sd	s1,8(sp)
    800020d6:	e04a                	sd	s2,0(sp)
    800020d8:	1000                	add	s0,sp,32
    800020da:	84aa                	mv	s1,a0
    800020dc:	adbfe0ef          	jal	80000bb6 <acquire>
    800020e0:	0284a903          	lw	s2,40(s1)
    800020e4:	8526                	mv	a0,s1
    800020e6:	b69fe0ef          	jal	80000c4e <release>
    800020ea:	854a                	mv	a0,s2
    800020ec:	60e2                	ld	ra,24(sp)
    800020ee:	6442                	ld	s0,16(sp)
    800020f0:	64a2                	ld	s1,8(sp)
    800020f2:	6902                	ld	s2,0(sp)
    800020f4:	6105                	add	sp,sp,32
    800020f6:	8082                	ret

00000000800020f8 <kwait>:
    800020f8:	715d                	add	sp,sp,-80
    800020fa:	e486                	sd	ra,72(sp)
    800020fc:	e0a2                	sd	s0,64(sp)
    800020fe:	fc26                	sd	s1,56(sp)
    80002100:	f84a                	sd	s2,48(sp)
    80002102:	f44e                	sd	s3,40(sp)
    80002104:	f052                	sd	s4,32(sp)
    80002106:	ec56                	sd	s5,24(sp)
    80002108:	e85a                	sd	s6,16(sp)
    8000210a:	e45e                	sd	s7,8(sp)
    8000210c:	e062                	sd	s8,0(sp)
    8000210e:	0880                	add	s0,sp,80
    80002110:	8baa                	mv	s7,a0
    80002112:	f7aff0ef          	jal	8000188c <myproc>
    80002116:	892a                	mv	s2,a0
    80002118:	0000e517          	auipc	a0,0xe
    8000211c:	85850513          	add	a0,a0,-1960 # 8000f970 <wait_lock>
    80002120:	a97fe0ef          	jal	80000bb6 <acquire>
    80002124:	4b01                	li	s6,0
    80002126:	4a15                	li	s4,5
    80002128:	00013997          	auipc	s3,0x13
    8000212c:	66098993          	add	s3,s3,1632 # 80015788 <tickslock>
    80002130:	4a85                	li	s5,1
    80002132:	0000ec17          	auipc	s8,0xe
    80002136:	83ec0c13          	add	s8,s8,-1986 # 8000f970 <wait_lock>
    8000213a:	875a                	mv	a4,s6
    8000213c:	0000e497          	auipc	s1,0xe
    80002140:	c4c48493          	add	s1,s1,-948 # 8000fd88 <proc>
    80002144:	a899                	j	8000219a <kwait+0xa2>
    80002146:	0304a983          	lw	s3,48(s1)
    8000214a:	000b8c63          	beqz	s7,80002162 <kwait+0x6a>
    8000214e:	4691                	li	a3,4
    80002150:	02c48613          	add	a2,s1,44
    80002154:	85de                	mv	a1,s7
    80002156:	05093503          	ld	a0,80(s2)
    8000215a:	c7cff0ef          	jal	800015d6 <copyout>
    8000215e:	00054f63          	bltz	a0,8000217c <kwait+0x84>
    80002162:	8526                	mv	a0,s1
    80002164:	8fbff0ef          	jal	80001a5e <freeproc>
    80002168:	8526                	mv	a0,s1
    8000216a:	ae5fe0ef          	jal	80000c4e <release>
    8000216e:	0000e517          	auipc	a0,0xe
    80002172:	80250513          	add	a0,a0,-2046 # 8000f970 <wait_lock>
    80002176:	ad9fe0ef          	jal	80000c4e <release>
    8000217a:	a891                	j	800021ce <kwait+0xd6>
    8000217c:	8526                	mv	a0,s1
    8000217e:	ad1fe0ef          	jal	80000c4e <release>
    80002182:	0000d517          	auipc	a0,0xd
    80002186:	7ee50513          	add	a0,a0,2030 # 8000f970 <wait_lock>
    8000218a:	ac5fe0ef          	jal	80000c4e <release>
    8000218e:	59fd                	li	s3,-1
    80002190:	a83d                	j	800021ce <kwait+0xd6>
    80002192:	16848493          	add	s1,s1,360
    80002196:	03348063          	beq	s1,s3,800021b6 <kwait+0xbe>
    8000219a:	7c9c                	ld	a5,56(s1)
    8000219c:	ff279be3          	bne	a5,s2,80002192 <kwait+0x9a>
    800021a0:	8526                	mv	a0,s1
    800021a2:	a15fe0ef          	jal	80000bb6 <acquire>
    800021a6:	4c9c                	lw	a5,24(s1)
    800021a8:	f9478fe3          	beq	a5,s4,80002146 <kwait+0x4e>
    800021ac:	8526                	mv	a0,s1
    800021ae:	aa1fe0ef          	jal	80000c4e <release>
    800021b2:	8756                	mv	a4,s5
    800021b4:	bff9                	j	80002192 <kwait+0x9a>
    800021b6:	c709                	beqz	a4,800021c0 <kwait+0xc8>
    800021b8:	854a                	mv	a0,s2
    800021ba:	f15ff0ef          	jal	800020ce <killed>
    800021be:	c50d                	beqz	a0,800021e8 <kwait+0xf0>
    800021c0:	0000d517          	auipc	a0,0xd
    800021c4:	7b050513          	add	a0,a0,1968 # 8000f970 <wait_lock>
    800021c8:	a87fe0ef          	jal	80000c4e <release>
    800021cc:	59fd                	li	s3,-1
    800021ce:	854e                	mv	a0,s3
    800021d0:	60a6                	ld	ra,72(sp)
    800021d2:	6406                	ld	s0,64(sp)
    800021d4:	74e2                	ld	s1,56(sp)
    800021d6:	7942                	ld	s2,48(sp)
    800021d8:	79a2                	ld	s3,40(sp)
    800021da:	7a02                	ld	s4,32(sp)
    800021dc:	6ae2                	ld	s5,24(sp)
    800021de:	6b42                	ld	s6,16(sp)
    800021e0:	6ba2                	ld	s7,8(sp)
    800021e2:	6c02                	ld	s8,0(sp)
    800021e4:	6161                	add	sp,sp,80
    800021e6:	8082                	ret
    800021e8:	85e2                	mv	a1,s8
    800021ea:	854a                	mv	a0,s2
    800021ec:	ca9ff0ef          	jal	80001e94 <sleep>
    800021f0:	b7a9                	j	8000213a <kwait+0x42>

00000000800021f2 <either_copyout>:
    800021f2:	7179                	add	sp,sp,-48
    800021f4:	f406                	sd	ra,40(sp)
    800021f6:	f022                	sd	s0,32(sp)
    800021f8:	ec26                	sd	s1,24(sp)
    800021fa:	e84a                	sd	s2,16(sp)
    800021fc:	e44e                	sd	s3,8(sp)
    800021fe:	e052                	sd	s4,0(sp)
    80002200:	1800                	add	s0,sp,48
    80002202:	84aa                	mv	s1,a0
    80002204:	892e                	mv	s2,a1
    80002206:	89b2                	mv	s3,a2
    80002208:	8a36                	mv	s4,a3
    8000220a:	e82ff0ef          	jal	8000188c <myproc>
    8000220e:	cc99                	beqz	s1,8000222c <either_copyout+0x3a>
    80002210:	86d2                	mv	a3,s4
    80002212:	864e                	mv	a2,s3
    80002214:	85ca                	mv	a1,s2
    80002216:	6928                	ld	a0,80(a0)
    80002218:	bbeff0ef          	jal	800015d6 <copyout>
    8000221c:	70a2                	ld	ra,40(sp)
    8000221e:	7402                	ld	s0,32(sp)
    80002220:	64e2                	ld	s1,24(sp)
    80002222:	6942                	ld	s2,16(sp)
    80002224:	69a2                	ld	s3,8(sp)
    80002226:	6a02                	ld	s4,0(sp)
    80002228:	6145                	add	sp,sp,48
    8000222a:	8082                	ret
    8000222c:	000a061b          	sext.w	a2,s4
    80002230:	85ce                	mv	a1,s3
    80002232:	854a                	mv	a0,s2
    80002234:	ac3fe0ef          	jal	80000cf6 <memmove>
    80002238:	8526                	mv	a0,s1
    8000223a:	b7cd                	j	8000221c <either_copyout+0x2a>

000000008000223c <either_copyin>:
    8000223c:	7179                	add	sp,sp,-48
    8000223e:	f406                	sd	ra,40(sp)
    80002240:	f022                	sd	s0,32(sp)
    80002242:	ec26                	sd	s1,24(sp)
    80002244:	e84a                	sd	s2,16(sp)
    80002246:	e44e                	sd	s3,8(sp)
    80002248:	e052                	sd	s4,0(sp)
    8000224a:	1800                	add	s0,sp,48
    8000224c:	892a                	mv	s2,a0
    8000224e:	84ae                	mv	s1,a1
    80002250:	89b2                	mv	s3,a2
    80002252:	8a36                	mv	s4,a3
    80002254:	e38ff0ef          	jal	8000188c <myproc>
    80002258:	cc99                	beqz	s1,80002276 <either_copyin+0x3a>
    8000225a:	86d2                	mv	a3,s4
    8000225c:	864e                	mv	a2,s3
    8000225e:	85ca                	mv	a1,s2
    80002260:	6928                	ld	a0,80(a0)
    80002262:	c3aff0ef          	jal	8000169c <copyin>
    80002266:	70a2                	ld	ra,40(sp)
    80002268:	7402                	ld	s0,32(sp)
    8000226a:	64e2                	ld	s1,24(sp)
    8000226c:	6942                	ld	s2,16(sp)
    8000226e:	69a2                	ld	s3,8(sp)
    80002270:	6a02                	ld	s4,0(sp)
    80002272:	6145                	add	sp,sp,48
    80002274:	8082                	ret
    80002276:	000a061b          	sext.w	a2,s4
    8000227a:	85ce                	mv	a1,s3
    8000227c:	854a                	mv	a0,s2
    8000227e:	a79fe0ef          	jal	80000cf6 <memmove>
    80002282:	8526                	mv	a0,s1
    80002284:	b7cd                	j	80002266 <either_copyin+0x2a>

0000000080002286 <procdump>:
    80002286:	715d                	add	sp,sp,-80
    80002288:	e486                	sd	ra,72(sp)
    8000228a:	e0a2                	sd	s0,64(sp)
    8000228c:	fc26                	sd	s1,56(sp)
    8000228e:	f84a                	sd	s2,48(sp)
    80002290:	f44e                	sd	s3,40(sp)
    80002292:	f052                	sd	s4,32(sp)
    80002294:	ec56                	sd	s5,24(sp)
    80002296:	e85a                	sd	s6,16(sp)
    80002298:	e45e                	sd	s7,8(sp)
    8000229a:	0880                	add	s0,sp,80
    8000229c:	00005517          	auipc	a0,0x5
    800022a0:	e2450513          	add	a0,a0,-476 # 800070c0 <digits+0xa8>
    800022a4:	a50fe0ef          	jal	800004f4 <printf>
    800022a8:	0000e497          	auipc	s1,0xe
    800022ac:	c3848493          	add	s1,s1,-968 # 8000fee0 <proc+0x158>
    800022b0:	00013917          	auipc	s2,0x13
    800022b4:	63090913          	add	s2,s2,1584 # 800158e0 <bcache+0x140>
    800022b8:	4b15                	li	s6,5
    800022ba:	00005997          	auipc	s3,0x5
    800022be:	f8e98993          	add	s3,s3,-114 # 80007248 <states.1753+0xd8>
    800022c2:	00005a97          	auipc	s5,0x5
    800022c6:	f8ea8a93          	add	s5,s5,-114 # 80007250 <states.1753+0xe0>
    800022ca:	00005a17          	auipc	s4,0x5
    800022ce:	df6a0a13          	add	s4,s4,-522 # 800070c0 <digits+0xa8>
    800022d2:	00005b97          	auipc	s7,0x5
    800022d6:	e9eb8b93          	add	s7,s7,-354 # 80007170 <states.1753>
    800022da:	a831                	j	800022f6 <procdump+0x70>
    800022dc:	86ba                	mv	a3,a4
    800022de:	ed872583          	lw	a1,-296(a4)
    800022e2:	8556                	mv	a0,s5
    800022e4:	a10fe0ef          	jal	800004f4 <printf>
    800022e8:	8552                	mv	a0,s4
    800022ea:	a0afe0ef          	jal	800004f4 <printf>
    800022ee:	16848493          	add	s1,s1,360
    800022f2:	03248163          	beq	s1,s2,80002314 <procdump+0x8e>
    800022f6:	8726                	mv	a4,s1
    800022f8:	ec04a783          	lw	a5,-320(s1)
    800022fc:	dbed                	beqz	a5,800022ee <procdump+0x68>
    800022fe:	864e                	mv	a2,s3
    80002300:	fcfb6ee3          	bltu	s6,a5,800022dc <procdump+0x56>
    80002304:	1782                	sll	a5,a5,0x20
    80002306:	9381                	srl	a5,a5,0x20
    80002308:	078e                	sll	a5,a5,0x3
    8000230a:	97de                	add	a5,a5,s7
    8000230c:	6390                	ld	a2,0(a5)
    8000230e:	f679                	bnez	a2,800022dc <procdump+0x56>
    80002310:	864e                	mv	a2,s3
    80002312:	b7e9                	j	800022dc <procdump+0x56>
    80002314:	60a6                	ld	ra,72(sp)
    80002316:	6406                	ld	s0,64(sp)
    80002318:	74e2                	ld	s1,56(sp)
    8000231a:	7942                	ld	s2,48(sp)
    8000231c:	79a2                	ld	s3,40(sp)
    8000231e:	7a02                	ld	s4,32(sp)
    80002320:	6ae2                	ld	s5,24(sp)
    80002322:	6b42                	ld	s6,16(sp)
    80002324:	6ba2                	ld	s7,8(sp)
    80002326:	6161                	add	sp,sp,80
    80002328:	8082                	ret

000000008000232a <swtch>:
    8000232a:	00153023          	sd	ra,0(a0)
    8000232e:	00253423          	sd	sp,8(a0)
    80002332:	e900                	sd	s0,16(a0)
    80002334:	ed04                	sd	s1,24(a0)
    80002336:	03253023          	sd	s2,32(a0)
    8000233a:	03353423          	sd	s3,40(a0)
    8000233e:	03453823          	sd	s4,48(a0)
    80002342:	03553c23          	sd	s5,56(a0)
    80002346:	05653023          	sd	s6,64(a0)
    8000234a:	05753423          	sd	s7,72(a0)
    8000234e:	05853823          	sd	s8,80(a0)
    80002352:	05953c23          	sd	s9,88(a0)
    80002356:	07a53023          	sd	s10,96(a0)
    8000235a:	07b53423          	sd	s11,104(a0)
    8000235e:	0005b083          	ld	ra,0(a1)
    80002362:	0085b103          	ld	sp,8(a1)
    80002366:	6980                	ld	s0,16(a1)
    80002368:	6d84                	ld	s1,24(a1)
    8000236a:	0205b903          	ld	s2,32(a1)
    8000236e:	0285b983          	ld	s3,40(a1)
    80002372:	0305ba03          	ld	s4,48(a1)
    80002376:	0385ba83          	ld	s5,56(a1)
    8000237a:	0405bb03          	ld	s6,64(a1)
    8000237e:	0485bb83          	ld	s7,72(a1)
    80002382:	0505bc03          	ld	s8,80(a1)
    80002386:	0585bc83          	ld	s9,88(a1)
    8000238a:	0605bd03          	ld	s10,96(a1)
    8000238e:	0685bd83          	ld	s11,104(a1)
    80002392:	8082                	ret

0000000080002394 <trapinit>:
    80002394:	1141                	add	sp,sp,-16
    80002396:	e406                	sd	ra,8(sp)
    80002398:	e022                	sd	s0,0(sp)
    8000239a:	0800                	add	s0,sp,16
    8000239c:	00005597          	auipc	a1,0x5
    800023a0:	ef458593          	add	a1,a1,-268 # 80007290 <states.1753+0x120>
    800023a4:	00013517          	auipc	a0,0x13
    800023a8:	3e450513          	add	a0,a0,996 # 80015788 <tickslock>
    800023ac:	f8afe0ef          	jal	80000b36 <initlock>
    800023b0:	60a2                	ld	ra,8(sp)
    800023b2:	6402                	ld	s0,0(sp)
    800023b4:	0141                	add	sp,sp,16
    800023b6:	8082                	ret

00000000800023b8 <trapinithart>:
    800023b8:	1141                	add	sp,sp,-16
    800023ba:	e422                	sd	s0,8(sp)
    800023bc:	0800                	add	s0,sp,16
    800023be:	00003797          	auipc	a5,0x3
    800023c2:	f2278793          	add	a5,a5,-222 # 800052e0 <kernelvec>
    800023c6:	10579073          	csrw	stvec,a5
    800023ca:	6422                	ld	s0,8(sp)
    800023cc:	0141                	add	sp,sp,16
    800023ce:	8082                	ret

00000000800023d0 <prepare_return>:
    800023d0:	1141                	add	sp,sp,-16
    800023d2:	e406                	sd	ra,8(sp)
    800023d4:	e022                	sd	s0,0(sp)
    800023d6:	0800                	add	s0,sp,16
    800023d8:	cb4ff0ef          	jal	8000188c <myproc>
    800023dc:	100027f3          	csrr	a5,sstatus
    800023e0:	9bf5                	and	a5,a5,-3
    800023e2:	10079073          	csrw	sstatus,a5
    800023e6:	04000737          	lui	a4,0x4000
    800023ea:	00004797          	auipc	a5,0x4
    800023ee:	c1678793          	add	a5,a5,-1002 # 80006000 <_trampoline>
    800023f2:	00004697          	auipc	a3,0x4
    800023f6:	c0e68693          	add	a3,a3,-1010 # 80006000 <_trampoline>
    800023fa:	8f95                	sub	a5,a5,a3
    800023fc:	177d                	add	a4,a4,-1 # 3ffffff <_entry-0x7c000001>
    800023fe:	0732                	sll	a4,a4,0xc
    80002400:	97ba                	add	a5,a5,a4
    80002402:	10579073          	csrw	stvec,a5
    80002406:	6d3c                	ld	a5,88(a0)
    80002408:	18002773          	csrr	a4,satp
    8000240c:	e398                	sd	a4,0(a5)
    8000240e:	6d38                	ld	a4,88(a0)
    80002410:	613c                	ld	a5,64(a0)
    80002412:	6685                	lui	a3,0x1
    80002414:	97b6                	add	a5,a5,a3
    80002416:	e71c                	sd	a5,8(a4)
    80002418:	6d3c                	ld	a5,88(a0)
    8000241a:	00000717          	auipc	a4,0x0
    8000241e:	0f470713          	add	a4,a4,244 # 8000250e <usertrap>
    80002422:	eb98                	sd	a4,16(a5)
    80002424:	6d3c                	ld	a5,88(a0)
    80002426:	8712                	mv	a4,tp
    80002428:	f398                	sd	a4,32(a5)
    8000242a:	100027f3          	csrr	a5,sstatus
    8000242e:	eff7f793          	and	a5,a5,-257
    80002432:	0207e793          	or	a5,a5,32
    80002436:	10079073          	csrw	sstatus,a5
    8000243a:	6d3c                	ld	a5,88(a0)
    8000243c:	6f9c                	ld	a5,24(a5)
    8000243e:	14179073          	csrw	sepc,a5
    80002442:	60a2                	ld	ra,8(sp)
    80002444:	6402                	ld	s0,0(sp)
    80002446:	0141                	add	sp,sp,16
    80002448:	8082                	ret

000000008000244a <clockintr>:
    8000244a:	1101                	add	sp,sp,-32
    8000244c:	ec06                	sd	ra,24(sp)
    8000244e:	e822                	sd	s0,16(sp)
    80002450:	e426                	sd	s1,8(sp)
    80002452:	1000                	add	s0,sp,32
    80002454:	c0cff0ef          	jal	80001860 <cpuid>
    80002458:	cd19                	beqz	a0,80002476 <clockintr+0x2c>
    8000245a:	c01027f3          	rdtime	a5
    8000245e:	000f4737          	lui	a4,0xf4
    80002462:	24070713          	add	a4,a4,576 # f4240 <_entry-0x7ff0bdc0>
    80002466:	97ba                	add	a5,a5,a4
    80002468:	14d79073          	csrw	stimecmp,a5
    8000246c:	60e2                	ld	ra,24(sp)
    8000246e:	6442                	ld	s0,16(sp)
    80002470:	64a2                	ld	s1,8(sp)
    80002472:	6105                	add	sp,sp,32
    80002474:	8082                	ret
    80002476:	00013497          	auipc	s1,0x13
    8000247a:	31248493          	add	s1,s1,786 # 80015788 <tickslock>
    8000247e:	8526                	mv	a0,s1
    80002480:	f36fe0ef          	jal	80000bb6 <acquire>
    80002484:	00005517          	auipc	a0,0x5
    80002488:	3d450513          	add	a0,a0,980 # 80007858 <ticks>
    8000248c:	411c                	lw	a5,0(a0)
    8000248e:	2785                	addw	a5,a5,1
    80002490:	c11c                	sw	a5,0(a0)
    80002492:	a4fff0ef          	jal	80001ee0 <wakeup>
    80002496:	8526                	mv	a0,s1
    80002498:	fb6fe0ef          	jal	80000c4e <release>
    8000249c:	bf7d                	j	8000245a <clockintr+0x10>

000000008000249e <devintr>:
    8000249e:	1101                	add	sp,sp,-32
    800024a0:	ec06                	sd	ra,24(sp)
    800024a2:	e822                	sd	s0,16(sp)
    800024a4:	e426                	sd	s1,8(sp)
    800024a6:	1000                	add	s0,sp,32
    800024a8:	14202773          	csrr	a4,scause
    800024ac:	57fd                	li	a5,-1
    800024ae:	17fe                	sll	a5,a5,0x3f
    800024b0:	07a5                	add	a5,a5,9
    800024b2:	00f70d63          	beq	a4,a5,800024cc <devintr+0x2e>
    800024b6:	57fd                	li	a5,-1
    800024b8:	17fe                	sll	a5,a5,0x3f
    800024ba:	0795                	add	a5,a5,5
    800024bc:	4501                	li	a0,0
    800024be:	04f70463          	beq	a4,a5,80002506 <devintr+0x68>
    800024c2:	60e2                	ld	ra,24(sp)
    800024c4:	6442                	ld	s0,16(sp)
    800024c6:	64a2                	ld	s1,8(sp)
    800024c8:	6105                	add	sp,sp,32
    800024ca:	8082                	ret
    800024cc:	6bd020ef          	jal	80005388 <plic_claim>
    800024d0:	84aa                	mv	s1,a0
    800024d2:	47a9                	li	a5,10
    800024d4:	02f50363          	beq	a0,a5,800024fa <devintr+0x5c>
    800024d8:	4785                	li	a5,1
    800024da:	02f50363          	beq	a0,a5,80002500 <devintr+0x62>
    800024de:	4505                	li	a0,1
    800024e0:	d0ed                	beqz	s1,800024c2 <devintr+0x24>
    800024e2:	85a6                	mv	a1,s1
    800024e4:	00005517          	auipc	a0,0x5
    800024e8:	db450513          	add	a0,a0,-588 # 80007298 <states.1753+0x128>
    800024ec:	808fe0ef          	jal	800004f4 <printf>
    800024f0:	8526                	mv	a0,s1
    800024f2:	6b7020ef          	jal	800053a8 <plic_complete>
    800024f6:	4505                	li	a0,1
    800024f8:	b7e9                	j	800024c2 <devintr+0x24>
    800024fa:	ca2fe0ef          	jal	8000099c <uartintr>
    800024fe:	bfcd                	j	800024f0 <devintr+0x52>
    80002500:	332030ef          	jal	80005832 <virtio_disk_intr>
    80002504:	b7f5                	j	800024f0 <devintr+0x52>
    80002506:	f45ff0ef          	jal	8000244a <clockintr>
    8000250a:	4509                	li	a0,2
    8000250c:	bf5d                	j	800024c2 <devintr+0x24>

000000008000250e <usertrap>:
    8000250e:	1101                	add	sp,sp,-32
    80002510:	ec06                	sd	ra,24(sp)
    80002512:	e822                	sd	s0,16(sp)
    80002514:	e426                	sd	s1,8(sp)
    80002516:	e04a                	sd	s2,0(sp)
    80002518:	1000                	add	s0,sp,32
    8000251a:	100027f3          	csrr	a5,sstatus
    8000251e:	1007f793          	and	a5,a5,256
    80002522:	eba5                	bnez	a5,80002592 <usertrap+0x84>
    80002524:	00003797          	auipc	a5,0x3
    80002528:	dbc78793          	add	a5,a5,-580 # 800052e0 <kernelvec>
    8000252c:	10579073          	csrw	stvec,a5
    80002530:	b5cff0ef          	jal	8000188c <myproc>
    80002534:	84aa                	mv	s1,a0
    80002536:	6d3c                	ld	a5,88(a0)
    80002538:	14102773          	csrr	a4,sepc
    8000253c:	ef98                	sd	a4,24(a5)
    8000253e:	14202773          	csrr	a4,scause
    80002542:	47a1                	li	a5,8
    80002544:	04f70d63          	beq	a4,a5,8000259e <usertrap+0x90>
    80002548:	f57ff0ef          	jal	8000249e <devintr>
    8000254c:	892a                	mv	s2,a0
    8000254e:	e945                	bnez	a0,800025fe <usertrap+0xf0>
    80002550:	14202773          	csrr	a4,scause
    80002554:	47bd                	li	a5,15
    80002556:	08f70863          	beq	a4,a5,800025e6 <usertrap+0xd8>
    8000255a:	14202773          	csrr	a4,scause
    8000255e:	47b5                	li	a5,13
    80002560:	08f70363          	beq	a4,a5,800025e6 <usertrap+0xd8>
    80002564:	142025f3          	csrr	a1,scause
    80002568:	5890                	lw	a2,48(s1)
    8000256a:	00005517          	auipc	a0,0x5
    8000256e:	d6e50513          	add	a0,a0,-658 # 800072d8 <states.1753+0x168>
    80002572:	f83fd0ef          	jal	800004f4 <printf>
    80002576:	141025f3          	csrr	a1,sepc
    8000257a:	14302673          	csrr	a2,stval
    8000257e:	00005517          	auipc	a0,0x5
    80002582:	d8a50513          	add	a0,a0,-630 # 80007308 <states.1753+0x198>
    80002586:	f6ffd0ef          	jal	800004f4 <printf>
    8000258a:	8526                	mv	a0,s1
    8000258c:	b1fff0ef          	jal	800020aa <setkilled>
    80002590:	a035                	j	800025bc <usertrap+0xae>
    80002592:	00005517          	auipc	a0,0x5
    80002596:	d2650513          	add	a0,a0,-730 # 800072b8 <states.1753+0x148>
    8000259a:	a28fe0ef          	jal	800007c2 <panic>
    8000259e:	b31ff0ef          	jal	800020ce <killed>
    800025a2:	ed15                	bnez	a0,800025de <usertrap+0xd0>
    800025a4:	6cb8                	ld	a4,88(s1)
    800025a6:	6f1c                	ld	a5,24(a4)
    800025a8:	0791                	add	a5,a5,4
    800025aa:	ef1c                	sd	a5,24(a4)
    800025ac:	100027f3          	csrr	a5,sstatus
    800025b0:	0027e793          	or	a5,a5,2
    800025b4:	10079073          	csrw	sstatus,a5
    800025b8:	246000ef          	jal	800027fe <syscall>
    800025bc:	8526                	mv	a0,s1
    800025be:	b11ff0ef          	jal	800020ce <killed>
    800025c2:	e139                	bnez	a0,80002608 <usertrap+0xfa>
    800025c4:	e0dff0ef          	jal	800023d0 <prepare_return>
    800025c8:	68a8                	ld	a0,80(s1)
    800025ca:	8131                	srl	a0,a0,0xc
    800025cc:	57fd                	li	a5,-1
    800025ce:	17fe                	sll	a5,a5,0x3f
    800025d0:	8d5d                	or	a0,a0,a5
    800025d2:	60e2                	ld	ra,24(sp)
    800025d4:	6442                	ld	s0,16(sp)
    800025d6:	64a2                	ld	s1,8(sp)
    800025d8:	6902                	ld	s2,0(sp)
    800025da:	6105                	add	sp,sp,32
    800025dc:	8082                	ret
    800025de:	557d                	li	a0,-1
    800025e0:	9c1ff0ef          	jal	80001fa0 <kexit>
    800025e4:	b7c1                	j	800025a4 <usertrap+0x96>
    800025e6:	143025f3          	csrr	a1,stval
    800025ea:	14202673          	csrr	a2,scause
    800025ee:	164d                	add	a2,a2,-13 # ff3 <_entry-0x7ffff00d>
    800025f0:	00163613          	seqz	a2,a2
    800025f4:	68a8                	ld	a0,80(s1)
    800025f6:	f6ffe0ef          	jal	80001564 <vmfault>
    800025fa:	f169                	bnez	a0,800025bc <usertrap+0xae>
    800025fc:	b7a5                	j	80002564 <usertrap+0x56>
    800025fe:	8526                	mv	a0,s1
    80002600:	acfff0ef          	jal	800020ce <killed>
    80002604:	c511                	beqz	a0,80002610 <usertrap+0x102>
    80002606:	a011                	j	8000260a <usertrap+0xfc>
    80002608:	4901                	li	s2,0
    8000260a:	557d                	li	a0,-1
    8000260c:	995ff0ef          	jal	80001fa0 <kexit>
    80002610:	4789                	li	a5,2
    80002612:	faf919e3          	bne	s2,a5,800025c4 <usertrap+0xb6>
    80002616:	853ff0ef          	jal	80001e68 <yield>
    8000261a:	b76d                	j	800025c4 <usertrap+0xb6>

000000008000261c <kerneltrap>:
    8000261c:	7179                	add	sp,sp,-48
    8000261e:	f406                	sd	ra,40(sp)
    80002620:	f022                	sd	s0,32(sp)
    80002622:	ec26                	sd	s1,24(sp)
    80002624:	e84a                	sd	s2,16(sp)
    80002626:	e44e                	sd	s3,8(sp)
    80002628:	1800                	add	s0,sp,48
    8000262a:	14102973          	csrr	s2,sepc
    8000262e:	100024f3          	csrr	s1,sstatus
    80002632:	142029f3          	csrr	s3,scause
    80002636:	1004f793          	and	a5,s1,256
    8000263a:	c795                	beqz	a5,80002666 <kerneltrap+0x4a>
    8000263c:	100027f3          	csrr	a5,sstatus
    80002640:	8b89                	and	a5,a5,2
    80002642:	eb85                	bnez	a5,80002672 <kerneltrap+0x56>
    80002644:	e5bff0ef          	jal	8000249e <devintr>
    80002648:	c91d                	beqz	a0,8000267e <kerneltrap+0x62>
    8000264a:	4789                	li	a5,2
    8000264c:	04f50a63          	beq	a0,a5,800026a0 <kerneltrap+0x84>
    80002650:	14191073          	csrw	sepc,s2
    80002654:	10049073          	csrw	sstatus,s1
    80002658:	70a2                	ld	ra,40(sp)
    8000265a:	7402                	ld	s0,32(sp)
    8000265c:	64e2                	ld	s1,24(sp)
    8000265e:	6942                	ld	s2,16(sp)
    80002660:	69a2                	ld	s3,8(sp)
    80002662:	6145                	add	sp,sp,48
    80002664:	8082                	ret
    80002666:	00005517          	auipc	a0,0x5
    8000266a:	cca50513          	add	a0,a0,-822 # 80007330 <states.1753+0x1c0>
    8000266e:	954fe0ef          	jal	800007c2 <panic>
    80002672:	00005517          	auipc	a0,0x5
    80002676:	ce650513          	add	a0,a0,-794 # 80007358 <states.1753+0x1e8>
    8000267a:	948fe0ef          	jal	800007c2 <panic>
    8000267e:	14102673          	csrr	a2,sepc
    80002682:	143026f3          	csrr	a3,stval
    80002686:	85ce                	mv	a1,s3
    80002688:	00005517          	auipc	a0,0x5
    8000268c:	cf050513          	add	a0,a0,-784 # 80007378 <states.1753+0x208>
    80002690:	e65fd0ef          	jal	800004f4 <printf>
    80002694:	00005517          	auipc	a0,0x5
    80002698:	d0c50513          	add	a0,a0,-756 # 800073a0 <states.1753+0x230>
    8000269c:	926fe0ef          	jal	800007c2 <panic>
    800026a0:	9ecff0ef          	jal	8000188c <myproc>
    800026a4:	d555                	beqz	a0,80002650 <kerneltrap+0x34>
    800026a6:	fc2ff0ef          	jal	80001e68 <yield>
    800026aa:	b75d                	j	80002650 <kerneltrap+0x34>

00000000800026ac <argraw>:
    800026ac:	1101                	add	sp,sp,-32
    800026ae:	ec06                	sd	ra,24(sp)
    800026b0:	e822                	sd	s0,16(sp)
    800026b2:	e426                	sd	s1,8(sp)
    800026b4:	1000                	add	s0,sp,32
    800026b6:	84aa                	mv	s1,a0
    800026b8:	9d4ff0ef          	jal	8000188c <myproc>
    800026bc:	4795                	li	a5,5
    800026be:	0497e163          	bltu	a5,s1,80002700 <argraw+0x54>
    800026c2:	048a                	sll	s1,s1,0x2
    800026c4:	00005717          	auipc	a4,0x5
    800026c8:	cec70713          	add	a4,a4,-788 # 800073b0 <states.1753+0x240>
    800026cc:	94ba                	add	s1,s1,a4
    800026ce:	409c                	lw	a5,0(s1)
    800026d0:	97ba                	add	a5,a5,a4
    800026d2:	8782                	jr	a5
    800026d4:	6d3c                	ld	a5,88(a0)
    800026d6:	7ba8                	ld	a0,112(a5)
    800026d8:	60e2                	ld	ra,24(sp)
    800026da:	6442                	ld	s0,16(sp)
    800026dc:	64a2                	ld	s1,8(sp)
    800026de:	6105                	add	sp,sp,32
    800026e0:	8082                	ret
    800026e2:	6d3c                	ld	a5,88(a0)
    800026e4:	7fa8                	ld	a0,120(a5)
    800026e6:	bfcd                	j	800026d8 <argraw+0x2c>
    800026e8:	6d3c                	ld	a5,88(a0)
    800026ea:	63c8                	ld	a0,128(a5)
    800026ec:	b7f5                	j	800026d8 <argraw+0x2c>
    800026ee:	6d3c                	ld	a5,88(a0)
    800026f0:	67c8                	ld	a0,136(a5)
    800026f2:	b7dd                	j	800026d8 <argraw+0x2c>
    800026f4:	6d3c                	ld	a5,88(a0)
    800026f6:	6bc8                	ld	a0,144(a5)
    800026f8:	b7c5                	j	800026d8 <argraw+0x2c>
    800026fa:	6d3c                	ld	a5,88(a0)
    800026fc:	6fc8                	ld	a0,152(a5)
    800026fe:	bfe9                	j	800026d8 <argraw+0x2c>
    80002700:	00005517          	auipc	a0,0x5
    80002704:	d7850513          	add	a0,a0,-648 # 80007478 <syscalls+0xb0>
    80002708:	8bafe0ef          	jal	800007c2 <panic>

000000008000270c <fetchaddr>:
    8000270c:	1101                	add	sp,sp,-32
    8000270e:	ec06                	sd	ra,24(sp)
    80002710:	e822                	sd	s0,16(sp)
    80002712:	e426                	sd	s1,8(sp)
    80002714:	e04a                	sd	s2,0(sp)
    80002716:	1000                	add	s0,sp,32
    80002718:	84aa                	mv	s1,a0
    8000271a:	892e                	mv	s2,a1
    8000271c:	970ff0ef          	jal	8000188c <myproc>
    80002720:	653c                	ld	a5,72(a0)
    80002722:	02f4f663          	bgeu	s1,a5,8000274e <fetchaddr+0x42>
    80002726:	00848713          	add	a4,s1,8
    8000272a:	02e7e463          	bltu	a5,a4,80002752 <fetchaddr+0x46>
    8000272e:	46a1                	li	a3,8
    80002730:	8626                	mv	a2,s1
    80002732:	85ca                	mv	a1,s2
    80002734:	6928                	ld	a0,80(a0)
    80002736:	f67fe0ef          	jal	8000169c <copyin>
    8000273a:	00a03533          	snez	a0,a0
    8000273e:	40a00533          	neg	a0,a0
    80002742:	60e2                	ld	ra,24(sp)
    80002744:	6442                	ld	s0,16(sp)
    80002746:	64a2                	ld	s1,8(sp)
    80002748:	6902                	ld	s2,0(sp)
    8000274a:	6105                	add	sp,sp,32
    8000274c:	8082                	ret
    8000274e:	557d                	li	a0,-1
    80002750:	bfcd                	j	80002742 <fetchaddr+0x36>
    80002752:	557d                	li	a0,-1
    80002754:	b7fd                	j	80002742 <fetchaddr+0x36>

0000000080002756 <fetchstr>:
    80002756:	7179                	add	sp,sp,-48
    80002758:	f406                	sd	ra,40(sp)
    8000275a:	f022                	sd	s0,32(sp)
    8000275c:	ec26                	sd	s1,24(sp)
    8000275e:	e84a                	sd	s2,16(sp)
    80002760:	e44e                	sd	s3,8(sp)
    80002762:	1800                	add	s0,sp,48
    80002764:	892a                	mv	s2,a0
    80002766:	84ae                	mv	s1,a1
    80002768:	89b2                	mv	s3,a2
    8000276a:	922ff0ef          	jal	8000188c <myproc>
    8000276e:	86ce                	mv	a3,s3
    80002770:	864a                	mv	a2,s2
    80002772:	85a6                	mv	a1,s1
    80002774:	6928                	ld	a0,80(a0)
    80002776:	d0dfe0ef          	jal	80001482 <copyinstr>
    8000277a:	00054c63          	bltz	a0,80002792 <fetchstr+0x3c>
    8000277e:	8526                	mv	a0,s1
    80002780:	eacfe0ef          	jal	80000e2c <strlen>
    80002784:	70a2                	ld	ra,40(sp)
    80002786:	7402                	ld	s0,32(sp)
    80002788:	64e2                	ld	s1,24(sp)
    8000278a:	6942                	ld	s2,16(sp)
    8000278c:	69a2                	ld	s3,8(sp)
    8000278e:	6145                	add	sp,sp,48
    80002790:	8082                	ret
    80002792:	557d                	li	a0,-1
    80002794:	bfc5                	j	80002784 <fetchstr+0x2e>

0000000080002796 <argint>:
    80002796:	1101                	add	sp,sp,-32
    80002798:	ec06                	sd	ra,24(sp)
    8000279a:	e822                	sd	s0,16(sp)
    8000279c:	e426                	sd	s1,8(sp)
    8000279e:	1000                	add	s0,sp,32
    800027a0:	84ae                	mv	s1,a1
    800027a2:	f0bff0ef          	jal	800026ac <argraw>
    800027a6:	c088                	sw	a0,0(s1)
    800027a8:	60e2                	ld	ra,24(sp)
    800027aa:	6442                	ld	s0,16(sp)
    800027ac:	64a2                	ld	s1,8(sp)
    800027ae:	6105                	add	sp,sp,32
    800027b0:	8082                	ret

00000000800027b2 <argaddr>:
    800027b2:	1101                	add	sp,sp,-32
    800027b4:	ec06                	sd	ra,24(sp)
    800027b6:	e822                	sd	s0,16(sp)
    800027b8:	e426                	sd	s1,8(sp)
    800027ba:	1000                	add	s0,sp,32
    800027bc:	84ae                	mv	s1,a1
    800027be:	eefff0ef          	jal	800026ac <argraw>
    800027c2:	e088                	sd	a0,0(s1)
    800027c4:	60e2                	ld	ra,24(sp)
    800027c6:	6442                	ld	s0,16(sp)
    800027c8:	64a2                	ld	s1,8(sp)
    800027ca:	6105                	add	sp,sp,32
    800027cc:	8082                	ret

00000000800027ce <argstr>:
    800027ce:	7179                	add	sp,sp,-48
    800027d0:	f406                	sd	ra,40(sp)
    800027d2:	f022                	sd	s0,32(sp)
    800027d4:	ec26                	sd	s1,24(sp)
    800027d6:	e84a                	sd	s2,16(sp)
    800027d8:	1800                	add	s0,sp,48
    800027da:	84ae                	mv	s1,a1
    800027dc:	8932                	mv	s2,a2
    800027de:	fd840593          	add	a1,s0,-40
    800027e2:	fd1ff0ef          	jal	800027b2 <argaddr>
    800027e6:	864a                	mv	a2,s2
    800027e8:	85a6                	mv	a1,s1
    800027ea:	fd843503          	ld	a0,-40(s0)
    800027ee:	f69ff0ef          	jal	80002756 <fetchstr>
    800027f2:	70a2                	ld	ra,40(sp)
    800027f4:	7402                	ld	s0,32(sp)
    800027f6:	64e2                	ld	s1,24(sp)
    800027f8:	6942                	ld	s2,16(sp)
    800027fa:	6145                	add	sp,sp,48
    800027fc:	8082                	ret

00000000800027fe <syscall>:
    800027fe:	1101                	add	sp,sp,-32
    80002800:	ec06                	sd	ra,24(sp)
    80002802:	e822                	sd	s0,16(sp)
    80002804:	e426                	sd	s1,8(sp)
    80002806:	e04a                	sd	s2,0(sp)
    80002808:	1000                	add	s0,sp,32
    8000280a:	882ff0ef          	jal	8000188c <myproc>
    8000280e:	84aa                	mv	s1,a0
    80002810:	05853903          	ld	s2,88(a0)
    80002814:	0a893783          	ld	a5,168(s2)
    80002818:	0007869b          	sext.w	a3,a5
    8000281c:	37fd                	addw	a5,a5,-1
    8000281e:	4751                	li	a4,20
    80002820:	00f76f63          	bltu	a4,a5,8000283e <syscall+0x40>
    80002824:	00369713          	sll	a4,a3,0x3
    80002828:	00005797          	auipc	a5,0x5
    8000282c:	ba078793          	add	a5,a5,-1120 # 800073c8 <syscalls>
    80002830:	97ba                	add	a5,a5,a4
    80002832:	639c                	ld	a5,0(a5)
    80002834:	c789                	beqz	a5,8000283e <syscall+0x40>
    80002836:	9782                	jalr	a5
    80002838:	06a93823          	sd	a0,112(s2)
    8000283c:	a829                	j	80002856 <syscall+0x58>
    8000283e:	15848613          	add	a2,s1,344
    80002842:	588c                	lw	a1,48(s1)
    80002844:	00005517          	auipc	a0,0x5
    80002848:	c3c50513          	add	a0,a0,-964 # 80007480 <syscalls+0xb8>
    8000284c:	ca9fd0ef          	jal	800004f4 <printf>
    80002850:	6cbc                	ld	a5,88(s1)
    80002852:	577d                	li	a4,-1
    80002854:	fbb8                	sd	a4,112(a5)
    80002856:	60e2                	ld	ra,24(sp)
    80002858:	6442                	ld	s0,16(sp)
    8000285a:	64a2                	ld	s1,8(sp)
    8000285c:	6902                	ld	s2,0(sp)
    8000285e:	6105                	add	sp,sp,32
    80002860:	8082                	ret

0000000080002862 <sys_exit>:
    80002862:	1101                	add	sp,sp,-32
    80002864:	ec06                	sd	ra,24(sp)
    80002866:	e822                	sd	s0,16(sp)
    80002868:	1000                	add	s0,sp,32
    8000286a:	fec40593          	add	a1,s0,-20
    8000286e:	4501                	li	a0,0
    80002870:	f27ff0ef          	jal	80002796 <argint>
    80002874:	fec42503          	lw	a0,-20(s0)
    80002878:	f28ff0ef          	jal	80001fa0 <kexit>
    8000287c:	4501                	li	a0,0
    8000287e:	60e2                	ld	ra,24(sp)
    80002880:	6442                	ld	s0,16(sp)
    80002882:	6105                	add	sp,sp,32
    80002884:	8082                	ret

0000000080002886 <sys_getpid>:
    80002886:	1141                	add	sp,sp,-16
    80002888:	e406                	sd	ra,8(sp)
    8000288a:	e022                	sd	s0,0(sp)
    8000288c:	0800                	add	s0,sp,16
    8000288e:	ffffe0ef          	jal	8000188c <myproc>
    80002892:	5908                	lw	a0,48(a0)
    80002894:	60a2                	ld	ra,8(sp)
    80002896:	6402                	ld	s0,0(sp)
    80002898:	0141                	add	sp,sp,16
    8000289a:	8082                	ret

000000008000289c <sys_fork>:
    8000289c:	1141                	add	sp,sp,-16
    8000289e:	e406                	sd	ra,8(sp)
    800028a0:	e022                	sd	s0,0(sp)
    800028a2:	0800                	add	s0,sp,16
    800028a4:	b4eff0ef          	jal	80001bf2 <kfork>
    800028a8:	60a2                	ld	ra,8(sp)
    800028aa:	6402                	ld	s0,0(sp)
    800028ac:	0141                	add	sp,sp,16
    800028ae:	8082                	ret

00000000800028b0 <sys_wait>:
    800028b0:	1101                	add	sp,sp,-32
    800028b2:	ec06                	sd	ra,24(sp)
    800028b4:	e822                	sd	s0,16(sp)
    800028b6:	1000                	add	s0,sp,32
    800028b8:	fe840593          	add	a1,s0,-24
    800028bc:	4501                	li	a0,0
    800028be:	ef5ff0ef          	jal	800027b2 <argaddr>
    800028c2:	fe843503          	ld	a0,-24(s0)
    800028c6:	833ff0ef          	jal	800020f8 <kwait>
    800028ca:	60e2                	ld	ra,24(sp)
    800028cc:	6442                	ld	s0,16(sp)
    800028ce:	6105                	add	sp,sp,32
    800028d0:	8082                	ret

00000000800028d2 <sys_sbrk>:
    800028d2:	7179                	add	sp,sp,-48
    800028d4:	f406                	sd	ra,40(sp)
    800028d6:	f022                	sd	s0,32(sp)
    800028d8:	ec26                	sd	s1,24(sp)
    800028da:	1800                	add	s0,sp,48
    800028dc:	fd840593          	add	a1,s0,-40
    800028e0:	4501                	li	a0,0
    800028e2:	eb5ff0ef          	jal	80002796 <argint>
    800028e6:	fdc40593          	add	a1,s0,-36
    800028ea:	4505                	li	a0,1
    800028ec:	eabff0ef          	jal	80002796 <argint>
    800028f0:	f9dfe0ef          	jal	8000188c <myproc>
    800028f4:	6524                	ld	s1,72(a0)
    800028f6:	fdc42703          	lw	a4,-36(s0)
    800028fa:	4785                	li	a5,1
    800028fc:	02f70763          	beq	a4,a5,8000292a <sys_sbrk+0x58>
    80002900:	fd842783          	lw	a5,-40(s0)
    80002904:	0207c363          	bltz	a5,8000292a <sys_sbrk+0x58>
    80002908:	97a6                	add	a5,a5,s1
    8000290a:	0297ee63          	bltu	a5,s1,80002946 <sys_sbrk+0x74>
    8000290e:	02000737          	lui	a4,0x2000
    80002912:	177d                	add	a4,a4,-1 # 1ffffff <_entry-0x7e000001>
    80002914:	0736                	sll	a4,a4,0xd
    80002916:	02f76a63          	bltu	a4,a5,8000294a <sys_sbrk+0x78>
    8000291a:	f73fe0ef          	jal	8000188c <myproc>
    8000291e:	fd842703          	lw	a4,-40(s0)
    80002922:	653c                	ld	a5,72(a0)
    80002924:	97ba                	add	a5,a5,a4
    80002926:	e53c                	sd	a5,72(a0)
    80002928:	a039                	j	80002936 <sys_sbrk+0x64>
    8000292a:	fd842503          	lw	a0,-40(s0)
    8000292e:	a62ff0ef          	jal	80001b90 <growproc>
    80002932:	00054863          	bltz	a0,80002942 <sys_sbrk+0x70>
    80002936:	8526                	mv	a0,s1
    80002938:	70a2                	ld	ra,40(sp)
    8000293a:	7402                	ld	s0,32(sp)
    8000293c:	64e2                	ld	s1,24(sp)
    8000293e:	6145                	add	sp,sp,48
    80002940:	8082                	ret
    80002942:	54fd                	li	s1,-1
    80002944:	bfcd                	j	80002936 <sys_sbrk+0x64>
    80002946:	54fd                	li	s1,-1
    80002948:	b7fd                	j	80002936 <sys_sbrk+0x64>
    8000294a:	54fd                	li	s1,-1
    8000294c:	b7ed                	j	80002936 <sys_sbrk+0x64>

000000008000294e <sys_pause>:
    8000294e:	7139                	add	sp,sp,-64
    80002950:	fc06                	sd	ra,56(sp)
    80002952:	f822                	sd	s0,48(sp)
    80002954:	f426                	sd	s1,40(sp)
    80002956:	f04a                	sd	s2,32(sp)
    80002958:	ec4e                	sd	s3,24(sp)
    8000295a:	0080                	add	s0,sp,64
    8000295c:	fcc40593          	add	a1,s0,-52
    80002960:	4501                	li	a0,0
    80002962:	e35ff0ef          	jal	80002796 <argint>
    80002966:	fcc42783          	lw	a5,-52(s0)
    8000296a:	0607c763          	bltz	a5,800029d8 <sys_pause+0x8a>
    8000296e:	00013517          	auipc	a0,0x13
    80002972:	e1a50513          	add	a0,a0,-486 # 80015788 <tickslock>
    80002976:	a40fe0ef          	jal	80000bb6 <acquire>
    8000297a:	00005797          	auipc	a5,0x5
    8000297e:	ede78793          	add	a5,a5,-290 # 80007858 <ticks>
    80002982:	0007a903          	lw	s2,0(a5)
    80002986:	fcc42783          	lw	a5,-52(s0)
    8000298a:	cb8d                	beqz	a5,800029bc <sys_pause+0x6e>
    8000298c:	00013997          	auipc	s3,0x13
    80002990:	dfc98993          	add	s3,s3,-516 # 80015788 <tickslock>
    80002994:	00005497          	auipc	s1,0x5
    80002998:	ec448493          	add	s1,s1,-316 # 80007858 <ticks>
    8000299c:	ef1fe0ef          	jal	8000188c <myproc>
    800029a0:	f2eff0ef          	jal	800020ce <killed>
    800029a4:	ed0d                	bnez	a0,800029de <sys_pause+0x90>
    800029a6:	85ce                	mv	a1,s3
    800029a8:	8526                	mv	a0,s1
    800029aa:	ceaff0ef          	jal	80001e94 <sleep>
    800029ae:	409c                	lw	a5,0(s1)
    800029b0:	412787bb          	subw	a5,a5,s2
    800029b4:	fcc42703          	lw	a4,-52(s0)
    800029b8:	fee7e2e3          	bltu	a5,a4,8000299c <sys_pause+0x4e>
    800029bc:	00013517          	auipc	a0,0x13
    800029c0:	dcc50513          	add	a0,a0,-564 # 80015788 <tickslock>
    800029c4:	a8afe0ef          	jal	80000c4e <release>
    800029c8:	4501                	li	a0,0
    800029ca:	70e2                	ld	ra,56(sp)
    800029cc:	7442                	ld	s0,48(sp)
    800029ce:	74a2                	ld	s1,40(sp)
    800029d0:	7902                	ld	s2,32(sp)
    800029d2:	69e2                	ld	s3,24(sp)
    800029d4:	6121                	add	sp,sp,64
    800029d6:	8082                	ret
    800029d8:	fc042623          	sw	zero,-52(s0)
    800029dc:	bf49                	j	8000296e <sys_pause+0x20>
    800029de:	00013517          	auipc	a0,0x13
    800029e2:	daa50513          	add	a0,a0,-598 # 80015788 <tickslock>
    800029e6:	a68fe0ef          	jal	80000c4e <release>
    800029ea:	557d                	li	a0,-1
    800029ec:	bff9                	j	800029ca <sys_pause+0x7c>

00000000800029ee <sys_kill>:
    800029ee:	1101                	add	sp,sp,-32
    800029f0:	ec06                	sd	ra,24(sp)
    800029f2:	e822                	sd	s0,16(sp)
    800029f4:	1000                	add	s0,sp,32
    800029f6:	fec40593          	add	a1,s0,-20
    800029fa:	4501                	li	a0,0
    800029fc:	d9bff0ef          	jal	80002796 <argint>
    80002a00:	fec42503          	lw	a0,-20(s0)
    80002a04:	e40ff0ef          	jal	80002044 <kkill>
    80002a08:	60e2                	ld	ra,24(sp)
    80002a0a:	6442                	ld	s0,16(sp)
    80002a0c:	6105                	add	sp,sp,32
    80002a0e:	8082                	ret

0000000080002a10 <sys_uptime>:
    80002a10:	1101                	add	sp,sp,-32
    80002a12:	ec06                	sd	ra,24(sp)
    80002a14:	e822                	sd	s0,16(sp)
    80002a16:	e426                	sd	s1,8(sp)
    80002a18:	1000                	add	s0,sp,32
    80002a1a:	00013517          	auipc	a0,0x13
    80002a1e:	d6e50513          	add	a0,a0,-658 # 80015788 <tickslock>
    80002a22:	994fe0ef          	jal	80000bb6 <acquire>
    80002a26:	00005797          	auipc	a5,0x5
    80002a2a:	e3278793          	add	a5,a5,-462 # 80007858 <ticks>
    80002a2e:	4384                	lw	s1,0(a5)
    80002a30:	00013517          	auipc	a0,0x13
    80002a34:	d5850513          	add	a0,a0,-680 # 80015788 <tickslock>
    80002a38:	a16fe0ef          	jal	80000c4e <release>
    80002a3c:	02049513          	sll	a0,s1,0x20
    80002a40:	9101                	srl	a0,a0,0x20
    80002a42:	60e2                	ld	ra,24(sp)
    80002a44:	6442                	ld	s0,16(sp)
    80002a46:	64a2                	ld	s1,8(sp)
    80002a48:	6105                	add	sp,sp,32
    80002a4a:	8082                	ret

0000000080002a4c <binit>:
    80002a4c:	7179                	add	sp,sp,-48
    80002a4e:	f406                	sd	ra,40(sp)
    80002a50:	f022                	sd	s0,32(sp)
    80002a52:	ec26                	sd	s1,24(sp)
    80002a54:	e84a                	sd	s2,16(sp)
    80002a56:	e44e                	sd	s3,8(sp)
    80002a58:	e052                	sd	s4,0(sp)
    80002a5a:	1800                	add	s0,sp,48
    80002a5c:	00005597          	auipc	a1,0x5
    80002a60:	a4458593          	add	a1,a1,-1468 # 800074a0 <syscalls+0xd8>
    80002a64:	00013517          	auipc	a0,0x13
    80002a68:	d3c50513          	add	a0,a0,-708 # 800157a0 <bcache>
    80002a6c:	8cafe0ef          	jal	80000b36 <initlock>
    80002a70:	0001b797          	auipc	a5,0x1b
    80002a74:	d3078793          	add	a5,a5,-720 # 8001d7a0 <bcache+0x8000>
    80002a78:	0001b717          	auipc	a4,0x1b
    80002a7c:	f9070713          	add	a4,a4,-112 # 8001da08 <bcache+0x8268>
    80002a80:	2ae7b823          	sd	a4,688(a5)
    80002a84:	2ae7bc23          	sd	a4,696(a5)
    80002a88:	00013497          	auipc	s1,0x13
    80002a8c:	d3048493          	add	s1,s1,-720 # 800157b8 <bcache+0x18>
    80002a90:	893e                	mv	s2,a5
    80002a92:	89ba                	mv	s3,a4
    80002a94:	00005a17          	auipc	s4,0x5
    80002a98:	a14a0a13          	add	s4,s4,-1516 # 800074a8 <syscalls+0xe0>
    80002a9c:	2b893783          	ld	a5,696(s2)
    80002aa0:	e8bc                	sd	a5,80(s1)
    80002aa2:	0534b423          	sd	s3,72(s1)
    80002aa6:	85d2                	mv	a1,s4
    80002aa8:	01048513          	add	a0,s1,16
    80002aac:	360010ef          	jal	80003e0c <initsleeplock>
    80002ab0:	2b893783          	ld	a5,696(s2)
    80002ab4:	e7a4                	sd	s1,72(a5)
    80002ab6:	2a993c23          	sd	s1,696(s2)
    80002aba:	45848493          	add	s1,s1,1112
    80002abe:	fd349fe3          	bne	s1,s3,80002a9c <binit+0x50>
    80002ac2:	70a2                	ld	ra,40(sp)
    80002ac4:	7402                	ld	s0,32(sp)
    80002ac6:	64e2                	ld	s1,24(sp)
    80002ac8:	6942                	ld	s2,16(sp)
    80002aca:	69a2                	ld	s3,8(sp)
    80002acc:	6a02                	ld	s4,0(sp)
    80002ace:	6145                	add	sp,sp,48
    80002ad0:	8082                	ret

0000000080002ad2 <bread>:
    80002ad2:	7179                	add	sp,sp,-48
    80002ad4:	f406                	sd	ra,40(sp)
    80002ad6:	f022                	sd	s0,32(sp)
    80002ad8:	ec26                	sd	s1,24(sp)
    80002ada:	e84a                	sd	s2,16(sp)
    80002adc:	e44e                	sd	s3,8(sp)
    80002ade:	1800                	add	s0,sp,48
    80002ae0:	89aa                	mv	s3,a0
    80002ae2:	892e                	mv	s2,a1
    80002ae4:	00013517          	auipc	a0,0x13
    80002ae8:	cbc50513          	add	a0,a0,-836 # 800157a0 <bcache>
    80002aec:	8cafe0ef          	jal	80000bb6 <acquire>
    80002af0:	0001b797          	auipc	a5,0x1b
    80002af4:	cb078793          	add	a5,a5,-848 # 8001d7a0 <bcache+0x8000>
    80002af8:	2b87b483          	ld	s1,696(a5)
    80002afc:	0001b797          	auipc	a5,0x1b
    80002b00:	f0c78793          	add	a5,a5,-244 # 8001da08 <bcache+0x8268>
    80002b04:	02f48b63          	beq	s1,a5,80002b3a <bread+0x68>
    80002b08:	873e                	mv	a4,a5
    80002b0a:	a021                	j	80002b12 <bread+0x40>
    80002b0c:	68a4                	ld	s1,80(s1)
    80002b0e:	02e48663          	beq	s1,a4,80002b3a <bread+0x68>
    80002b12:	449c                	lw	a5,8(s1)
    80002b14:	ff379ce3          	bne	a5,s3,80002b0c <bread+0x3a>
    80002b18:	44dc                	lw	a5,12(s1)
    80002b1a:	ff2799e3          	bne	a5,s2,80002b0c <bread+0x3a>
    80002b1e:	40bc                	lw	a5,64(s1)
    80002b20:	2785                	addw	a5,a5,1
    80002b22:	c0bc                	sw	a5,64(s1)
    80002b24:	00013517          	auipc	a0,0x13
    80002b28:	c7c50513          	add	a0,a0,-900 # 800157a0 <bcache>
    80002b2c:	922fe0ef          	jal	80000c4e <release>
    80002b30:	01048513          	add	a0,s1,16
    80002b34:	30e010ef          	jal	80003e42 <acquiresleep>
    80002b38:	a891                	j	80002b8c <bread+0xba>
    80002b3a:	0001b797          	auipc	a5,0x1b
    80002b3e:	c6678793          	add	a5,a5,-922 # 8001d7a0 <bcache+0x8000>
    80002b42:	2b07b483          	ld	s1,688(a5)
    80002b46:	0001b797          	auipc	a5,0x1b
    80002b4a:	ec278793          	add	a5,a5,-318 # 8001da08 <bcache+0x8268>
    80002b4e:	04f48963          	beq	s1,a5,80002ba0 <bread+0xce>
    80002b52:	40bc                	lw	a5,64(s1)
    80002b54:	cb91                	beqz	a5,80002b68 <bread+0x96>
    80002b56:	0001b717          	auipc	a4,0x1b
    80002b5a:	eb270713          	add	a4,a4,-334 # 8001da08 <bcache+0x8268>
    80002b5e:	64a4                	ld	s1,72(s1)
    80002b60:	04e48063          	beq	s1,a4,80002ba0 <bread+0xce>
    80002b64:	40bc                	lw	a5,64(s1)
    80002b66:	ffe5                	bnez	a5,80002b5e <bread+0x8c>
    80002b68:	0134a423          	sw	s3,8(s1)
    80002b6c:	0124a623          	sw	s2,12(s1)
    80002b70:	0004a023          	sw	zero,0(s1)
    80002b74:	4785                	li	a5,1
    80002b76:	c0bc                	sw	a5,64(s1)
    80002b78:	00013517          	auipc	a0,0x13
    80002b7c:	c2850513          	add	a0,a0,-984 # 800157a0 <bcache>
    80002b80:	8cefe0ef          	jal	80000c4e <release>
    80002b84:	01048513          	add	a0,s1,16
    80002b88:	2ba010ef          	jal	80003e42 <acquiresleep>
    80002b8c:	409c                	lw	a5,0(s1)
    80002b8e:	cf99                	beqz	a5,80002bac <bread+0xda>
    80002b90:	8526                	mv	a0,s1
    80002b92:	70a2                	ld	ra,40(sp)
    80002b94:	7402                	ld	s0,32(sp)
    80002b96:	64e2                	ld	s1,24(sp)
    80002b98:	6942                	ld	s2,16(sp)
    80002b9a:	69a2                	ld	s3,8(sp)
    80002b9c:	6145                	add	sp,sp,48
    80002b9e:	8082                	ret
    80002ba0:	00005517          	auipc	a0,0x5
    80002ba4:	91050513          	add	a0,a0,-1776 # 800074b0 <syscalls+0xe8>
    80002ba8:	c1bfd0ef          	jal	800007c2 <panic>
    80002bac:	4581                	li	a1,0
    80002bae:	8526                	mv	a0,s1
    80002bb0:	249020ef          	jal	800055f8 <virtio_disk_rw>
    80002bb4:	4785                	li	a5,1
    80002bb6:	c09c                	sw	a5,0(s1)
    80002bb8:	bfe1                	j	80002b90 <bread+0xbe>

0000000080002bba <bwrite>:
    80002bba:	1101                	add	sp,sp,-32
    80002bbc:	ec06                	sd	ra,24(sp)
    80002bbe:	e822                	sd	s0,16(sp)
    80002bc0:	e426                	sd	s1,8(sp)
    80002bc2:	1000                	add	s0,sp,32
    80002bc4:	84aa                	mv	s1,a0
    80002bc6:	0541                	add	a0,a0,16
    80002bc8:	2f8010ef          	jal	80003ec0 <holdingsleep>
    80002bcc:	c911                	beqz	a0,80002be0 <bwrite+0x26>
    80002bce:	4585                	li	a1,1
    80002bd0:	8526                	mv	a0,s1
    80002bd2:	227020ef          	jal	800055f8 <virtio_disk_rw>
    80002bd6:	60e2                	ld	ra,24(sp)
    80002bd8:	6442                	ld	s0,16(sp)
    80002bda:	64a2                	ld	s1,8(sp)
    80002bdc:	6105                	add	sp,sp,32
    80002bde:	8082                	ret
    80002be0:	00005517          	auipc	a0,0x5
    80002be4:	8e850513          	add	a0,a0,-1816 # 800074c8 <syscalls+0x100>
    80002be8:	bdbfd0ef          	jal	800007c2 <panic>

0000000080002bec <brelse>:
    80002bec:	1101                	add	sp,sp,-32
    80002bee:	ec06                	sd	ra,24(sp)
    80002bf0:	e822                	sd	s0,16(sp)
    80002bf2:	e426                	sd	s1,8(sp)
    80002bf4:	e04a                	sd	s2,0(sp)
    80002bf6:	1000                	add	s0,sp,32
    80002bf8:	84aa                	mv	s1,a0
    80002bfa:	01050913          	add	s2,a0,16
    80002bfe:	854a                	mv	a0,s2
    80002c00:	2c0010ef          	jal	80003ec0 <holdingsleep>
    80002c04:	c13d                	beqz	a0,80002c6a <brelse+0x7e>
    80002c06:	854a                	mv	a0,s2
    80002c08:	280010ef          	jal	80003e88 <releasesleep>
    80002c0c:	00013517          	auipc	a0,0x13
    80002c10:	b9450513          	add	a0,a0,-1132 # 800157a0 <bcache>
    80002c14:	fa3fd0ef          	jal	80000bb6 <acquire>
    80002c18:	40bc                	lw	a5,64(s1)
    80002c1a:	37fd                	addw	a5,a5,-1
    80002c1c:	0007871b          	sext.w	a4,a5
    80002c20:	c0bc                	sw	a5,64(s1)
    80002c22:	eb05                	bnez	a4,80002c52 <brelse+0x66>
    80002c24:	68bc                	ld	a5,80(s1)
    80002c26:	64b8                	ld	a4,72(s1)
    80002c28:	e7b8                	sd	a4,72(a5)
    80002c2a:	64bc                	ld	a5,72(s1)
    80002c2c:	68b8                	ld	a4,80(s1)
    80002c2e:	ebb8                	sd	a4,80(a5)
    80002c30:	0001b797          	auipc	a5,0x1b
    80002c34:	b7078793          	add	a5,a5,-1168 # 8001d7a0 <bcache+0x8000>
    80002c38:	2b87b703          	ld	a4,696(a5)
    80002c3c:	e8b8                	sd	a4,80(s1)
    80002c3e:	0001b717          	auipc	a4,0x1b
    80002c42:	dca70713          	add	a4,a4,-566 # 8001da08 <bcache+0x8268>
    80002c46:	e4b8                	sd	a4,72(s1)
    80002c48:	2b87b703          	ld	a4,696(a5)
    80002c4c:	e724                	sd	s1,72(a4)
    80002c4e:	2a97bc23          	sd	s1,696(a5)
    80002c52:	00013517          	auipc	a0,0x13
    80002c56:	b4e50513          	add	a0,a0,-1202 # 800157a0 <bcache>
    80002c5a:	ff5fd0ef          	jal	80000c4e <release>
    80002c5e:	60e2                	ld	ra,24(sp)
    80002c60:	6442                	ld	s0,16(sp)
    80002c62:	64a2                	ld	s1,8(sp)
    80002c64:	6902                	ld	s2,0(sp)
    80002c66:	6105                	add	sp,sp,32
    80002c68:	8082                	ret
    80002c6a:	00005517          	auipc	a0,0x5
    80002c6e:	86650513          	add	a0,a0,-1946 # 800074d0 <syscalls+0x108>
    80002c72:	b51fd0ef          	jal	800007c2 <panic>

0000000080002c76 <bpin>:
    80002c76:	1101                	add	sp,sp,-32
    80002c78:	ec06                	sd	ra,24(sp)
    80002c7a:	e822                	sd	s0,16(sp)
    80002c7c:	e426                	sd	s1,8(sp)
    80002c7e:	1000                	add	s0,sp,32
    80002c80:	84aa                	mv	s1,a0
    80002c82:	00013517          	auipc	a0,0x13
    80002c86:	b1e50513          	add	a0,a0,-1250 # 800157a0 <bcache>
    80002c8a:	f2dfd0ef          	jal	80000bb6 <acquire>
    80002c8e:	40bc                	lw	a5,64(s1)
    80002c90:	2785                	addw	a5,a5,1
    80002c92:	c0bc                	sw	a5,64(s1)
    80002c94:	00013517          	auipc	a0,0x13
    80002c98:	b0c50513          	add	a0,a0,-1268 # 800157a0 <bcache>
    80002c9c:	fb3fd0ef          	jal	80000c4e <release>
    80002ca0:	60e2                	ld	ra,24(sp)
    80002ca2:	6442                	ld	s0,16(sp)
    80002ca4:	64a2                	ld	s1,8(sp)
    80002ca6:	6105                	add	sp,sp,32
    80002ca8:	8082                	ret

0000000080002caa <bunpin>:
    80002caa:	1101                	add	sp,sp,-32
    80002cac:	ec06                	sd	ra,24(sp)
    80002cae:	e822                	sd	s0,16(sp)
    80002cb0:	e426                	sd	s1,8(sp)
    80002cb2:	1000                	add	s0,sp,32
    80002cb4:	84aa                	mv	s1,a0
    80002cb6:	00013517          	auipc	a0,0x13
    80002cba:	aea50513          	add	a0,a0,-1302 # 800157a0 <bcache>
    80002cbe:	ef9fd0ef          	jal	80000bb6 <acquire>
    80002cc2:	40bc                	lw	a5,64(s1)
    80002cc4:	37fd                	addw	a5,a5,-1
    80002cc6:	c0bc                	sw	a5,64(s1)
    80002cc8:	00013517          	auipc	a0,0x13
    80002ccc:	ad850513          	add	a0,a0,-1320 # 800157a0 <bcache>
    80002cd0:	f7ffd0ef          	jal	80000c4e <release>
    80002cd4:	60e2                	ld	ra,24(sp)
    80002cd6:	6442                	ld	s0,16(sp)
    80002cd8:	64a2                	ld	s1,8(sp)
    80002cda:	6105                	add	sp,sp,32
    80002cdc:	8082                	ret

0000000080002cde <bfree>:
    80002cde:	1101                	add	sp,sp,-32
    80002ce0:	ec06                	sd	ra,24(sp)
    80002ce2:	e822                	sd	s0,16(sp)
    80002ce4:	e426                	sd	s1,8(sp)
    80002ce6:	e04a                	sd	s2,0(sp)
    80002ce8:	1000                	add	s0,sp,32
    80002cea:	84ae                	mv	s1,a1
    80002cec:	00d5d59b          	srlw	a1,a1,0xd
    80002cf0:	0001b797          	auipc	a5,0x1b
    80002cf4:	17078793          	add	a5,a5,368 # 8001de60 <sb>
    80002cf8:	4fdc                	lw	a5,28(a5)
    80002cfa:	9dbd                	addw	a1,a1,a5
    80002cfc:	dd7ff0ef          	jal	80002ad2 <bread>
    80002d00:	2481                	sext.w	s1,s1
    80002d02:	0074f713          	and	a4,s1,7
    80002d06:	4785                	li	a5,1
    80002d08:	00e797bb          	sllw	a5,a5,a4
    80002d0c:	14ce                	sll	s1,s1,0x33
    80002d0e:	90d9                	srl	s1,s1,0x36
    80002d10:	00950733          	add	a4,a0,s1
    80002d14:	05874703          	lbu	a4,88(a4)
    80002d18:	00e7f6b3          	and	a3,a5,a4
    80002d1c:	c29d                	beqz	a3,80002d42 <bfree+0x64>
    80002d1e:	892a                	mv	s2,a0
    80002d20:	94aa                	add	s1,s1,a0
    80002d22:	fff7c793          	not	a5,a5
    80002d26:	8ff9                	and	a5,a5,a4
    80002d28:	04f48c23          	sb	a5,88(s1)
    80002d2c:	002010ef          	jal	80003d2e <log_write>
    80002d30:	854a                	mv	a0,s2
    80002d32:	ebbff0ef          	jal	80002bec <brelse>
    80002d36:	60e2                	ld	ra,24(sp)
    80002d38:	6442                	ld	s0,16(sp)
    80002d3a:	64a2                	ld	s1,8(sp)
    80002d3c:	6902                	ld	s2,0(sp)
    80002d3e:	6105                	add	sp,sp,32
    80002d40:	8082                	ret
    80002d42:	00004517          	auipc	a0,0x4
    80002d46:	79650513          	add	a0,a0,1942 # 800074d8 <syscalls+0x110>
    80002d4a:	a79fd0ef          	jal	800007c2 <panic>

0000000080002d4e <balloc>:
    80002d4e:	711d                	add	sp,sp,-96
    80002d50:	ec86                	sd	ra,88(sp)
    80002d52:	e8a2                	sd	s0,80(sp)
    80002d54:	e4a6                	sd	s1,72(sp)
    80002d56:	e0ca                	sd	s2,64(sp)
    80002d58:	fc4e                	sd	s3,56(sp)
    80002d5a:	f852                	sd	s4,48(sp)
    80002d5c:	f456                	sd	s5,40(sp)
    80002d5e:	f05a                	sd	s6,32(sp)
    80002d60:	ec5e                	sd	s7,24(sp)
    80002d62:	e862                	sd	s8,16(sp)
    80002d64:	e466                	sd	s9,8(sp)
    80002d66:	1080                	add	s0,sp,96
    80002d68:	0001b797          	auipc	a5,0x1b
    80002d6c:	0f878793          	add	a5,a5,248 # 8001de60 <sb>
    80002d70:	43dc                	lw	a5,4(a5)
    80002d72:	0e078e63          	beqz	a5,80002e6e <balloc+0x120>
    80002d76:	8baa                	mv	s7,a0
    80002d78:	4a81                	li	s5,0
    80002d7a:	0001bb17          	auipc	s6,0x1b
    80002d7e:	0e6b0b13          	add	s6,s6,230 # 8001de60 <sb>
    80002d82:	4c05                	li	s8,1
    80002d84:	4985                	li	s3,1
    80002d86:	6a09                	lui	s4,0x2
    80002d88:	6c89                	lui	s9,0x2
    80002d8a:	a88d                	j	80002dfc <balloc+0xae>
    80002d8c:	8942                	mv	s2,a6
    80002d8e:	4705                	li	a4,1
    80002d90:	4681                	li	a3,0
    80002d92:	96a6                	add	a3,a3,s1
    80002d94:	8f51                	or	a4,a4,a2
    80002d96:	04e68c23          	sb	a4,88(a3) # 1058 <_entry-0x7fffefa8>
    80002d9a:	8526                	mv	a0,s1
    80002d9c:	793000ef          	jal	80003d2e <log_write>
    80002da0:	8526                	mv	a0,s1
    80002da2:	e4bff0ef          	jal	80002bec <brelse>
    80002da6:	85ca                	mv	a1,s2
    80002da8:	855e                	mv	a0,s7
    80002daa:	d29ff0ef          	jal	80002ad2 <bread>
    80002dae:	84aa                	mv	s1,a0
    80002db0:	40000613          	li	a2,1024
    80002db4:	4581                	li	a1,0
    80002db6:	05850513          	add	a0,a0,88
    80002dba:	ed1fd0ef          	jal	80000c8a <memset>
    80002dbe:	8526                	mv	a0,s1
    80002dc0:	76f000ef          	jal	80003d2e <log_write>
    80002dc4:	8526                	mv	a0,s1
    80002dc6:	e27ff0ef          	jal	80002bec <brelse>
    80002dca:	854a                	mv	a0,s2
    80002dcc:	60e6                	ld	ra,88(sp)
    80002dce:	6446                	ld	s0,80(sp)
    80002dd0:	64a6                	ld	s1,72(sp)
    80002dd2:	6906                	ld	s2,64(sp)
    80002dd4:	79e2                	ld	s3,56(sp)
    80002dd6:	7a42                	ld	s4,48(sp)
    80002dd8:	7aa2                	ld	s5,40(sp)
    80002dda:	7b02                	ld	s6,32(sp)
    80002ddc:	6be2                	ld	s7,24(sp)
    80002dde:	6c42                	ld	s8,16(sp)
    80002de0:	6ca2                	ld	s9,8(sp)
    80002de2:	6125                	add	sp,sp,96
    80002de4:	8082                	ret
    80002de6:	8526                	mv	a0,s1
    80002de8:	e05ff0ef          	jal	80002bec <brelse>
    80002dec:	015c87bb          	addw	a5,s9,s5
    80002df0:	00078a9b          	sext.w	s5,a5
    80002df4:	004b2703          	lw	a4,4(s6)
    80002df8:	06eafb63          	bgeu	s5,a4,80002e6e <balloc+0x120>
    80002dfc:	41fad79b          	sraw	a5,s5,0x1f
    80002e00:	0137d79b          	srlw	a5,a5,0x13
    80002e04:	015787bb          	addw	a5,a5,s5
    80002e08:	40d7d79b          	sraw	a5,a5,0xd
    80002e0c:	01cb2583          	lw	a1,28(s6)
    80002e10:	9dbd                	addw	a1,a1,a5
    80002e12:	855e                	mv	a0,s7
    80002e14:	cbfff0ef          	jal	80002ad2 <bread>
    80002e18:	84aa                	mv	s1,a0
    80002e1a:	000a881b          	sext.w	a6,s5
    80002e1e:	004b2503          	lw	a0,4(s6)
    80002e22:	fca872e3          	bgeu	a6,a0,80002de6 <balloc+0x98>
    80002e26:	0584c603          	lbu	a2,88(s1)
    80002e2a:	00167793          	and	a5,a2,1
    80002e2e:	dfb9                	beqz	a5,80002d8c <balloc+0x3e>
    80002e30:	4105053b          	subw	a0,a0,a6
    80002e34:	87e2                	mv	a5,s8
    80002e36:	0107893b          	addw	s2,a5,a6
    80002e3a:	faa786e3          	beq	a5,a0,80002de6 <balloc+0x98>
    80002e3e:	41f7d71b          	sraw	a4,a5,0x1f
    80002e42:	01d7561b          	srlw	a2,a4,0x1d
    80002e46:	00f606bb          	addw	a3,a2,a5
    80002e4a:	0076f713          	and	a4,a3,7
    80002e4e:	9f11                	subw	a4,a4,a2
    80002e50:	00e9973b          	sllw	a4,s3,a4
    80002e54:	4036d69b          	sraw	a3,a3,0x3
    80002e58:	00d48633          	add	a2,s1,a3
    80002e5c:	05864603          	lbu	a2,88(a2)
    80002e60:	00c775b3          	and	a1,a4,a2
    80002e64:	d59d                	beqz	a1,80002d92 <balloc+0x44>
    80002e66:	2785                	addw	a5,a5,1
    80002e68:	fd4797e3          	bne	a5,s4,80002e36 <balloc+0xe8>
    80002e6c:	bfad                	j	80002de6 <balloc+0x98>
    80002e6e:	00004517          	auipc	a0,0x4
    80002e72:	68250513          	add	a0,a0,1666 # 800074f0 <syscalls+0x128>
    80002e76:	e7efd0ef          	jal	800004f4 <printf>
    80002e7a:	4901                	li	s2,0
    80002e7c:	b7b9                	j	80002dca <balloc+0x7c>

0000000080002e7e <bmap>:
    80002e7e:	7179                	add	sp,sp,-48
    80002e80:	f406                	sd	ra,40(sp)
    80002e82:	f022                	sd	s0,32(sp)
    80002e84:	ec26                	sd	s1,24(sp)
    80002e86:	e84a                	sd	s2,16(sp)
    80002e88:	e44e                	sd	s3,8(sp)
    80002e8a:	e052                	sd	s4,0(sp)
    80002e8c:	1800                	add	s0,sp,48
    80002e8e:	89aa                	mv	s3,a0
    80002e90:	47ad                	li	a5,11
    80002e92:	02b7e563          	bltu	a5,a1,80002ebc <bmap+0x3e>
    80002e96:	02059493          	sll	s1,a1,0x20
    80002e9a:	9081                	srl	s1,s1,0x20
    80002e9c:	048a                	sll	s1,s1,0x2
    80002e9e:	94aa                	add	s1,s1,a0
    80002ea0:	0504a903          	lw	s2,80(s1)
    80002ea4:	06091663          	bnez	s2,80002f10 <bmap+0x92>
    80002ea8:	4108                	lw	a0,0(a0)
    80002eaa:	ea5ff0ef          	jal	80002d4e <balloc>
    80002eae:	0005091b          	sext.w	s2,a0
    80002eb2:	04090f63          	beqz	s2,80002f10 <bmap+0x92>
    80002eb6:	0524a823          	sw	s2,80(s1)
    80002eba:	a899                	j	80002f10 <bmap+0x92>
    80002ebc:	ff45849b          	addw	s1,a1,-12
    80002ec0:	0004871b          	sext.w	a4,s1
    80002ec4:	0ff00793          	li	a5,255
    80002ec8:	06e7eb63          	bltu	a5,a4,80002f3e <bmap+0xc0>
    80002ecc:	08052903          	lw	s2,128(a0)
    80002ed0:	00091b63          	bnez	s2,80002ee6 <bmap+0x68>
    80002ed4:	4108                	lw	a0,0(a0)
    80002ed6:	e79ff0ef          	jal	80002d4e <balloc>
    80002eda:	0005091b          	sext.w	s2,a0
    80002ede:	02090963          	beqz	s2,80002f10 <bmap+0x92>
    80002ee2:	0929a023          	sw	s2,128(s3)
    80002ee6:	85ca                	mv	a1,s2
    80002ee8:	0009a503          	lw	a0,0(s3)
    80002eec:	be7ff0ef          	jal	80002ad2 <bread>
    80002ef0:	8a2a                	mv	s4,a0
    80002ef2:	05850793          	add	a5,a0,88
    80002ef6:	02049593          	sll	a1,s1,0x20
    80002efa:	9181                	srl	a1,a1,0x20
    80002efc:	058a                	sll	a1,a1,0x2
    80002efe:	00b784b3          	add	s1,a5,a1
    80002f02:	0004a903          	lw	s2,0(s1)
    80002f06:	00090e63          	beqz	s2,80002f22 <bmap+0xa4>
    80002f0a:	8552                	mv	a0,s4
    80002f0c:	ce1ff0ef          	jal	80002bec <brelse>
    80002f10:	854a                	mv	a0,s2
    80002f12:	70a2                	ld	ra,40(sp)
    80002f14:	7402                	ld	s0,32(sp)
    80002f16:	64e2                	ld	s1,24(sp)
    80002f18:	6942                	ld	s2,16(sp)
    80002f1a:	69a2                	ld	s3,8(sp)
    80002f1c:	6a02                	ld	s4,0(sp)
    80002f1e:	6145                	add	sp,sp,48
    80002f20:	8082                	ret
    80002f22:	0009a503          	lw	a0,0(s3)
    80002f26:	e29ff0ef          	jal	80002d4e <balloc>
    80002f2a:	0005091b          	sext.w	s2,a0
    80002f2e:	fc090ee3          	beqz	s2,80002f0a <bmap+0x8c>
    80002f32:	0124a023          	sw	s2,0(s1)
    80002f36:	8552                	mv	a0,s4
    80002f38:	5f7000ef          	jal	80003d2e <log_write>
    80002f3c:	b7f9                	j	80002f0a <bmap+0x8c>
    80002f3e:	00004517          	auipc	a0,0x4
    80002f42:	5ca50513          	add	a0,a0,1482 # 80007508 <syscalls+0x140>
    80002f46:	87dfd0ef          	jal	800007c2 <panic>

0000000080002f4a <iget>:
    80002f4a:	7179                	add	sp,sp,-48
    80002f4c:	f406                	sd	ra,40(sp)
    80002f4e:	f022                	sd	s0,32(sp)
    80002f50:	ec26                	sd	s1,24(sp)
    80002f52:	e84a                	sd	s2,16(sp)
    80002f54:	e44e                	sd	s3,8(sp)
    80002f56:	e052                	sd	s4,0(sp)
    80002f58:	1800                	add	s0,sp,48
    80002f5a:	89aa                	mv	s3,a0
    80002f5c:	8a2e                	mv	s4,a1
    80002f5e:	0001b517          	auipc	a0,0x1b
    80002f62:	f2250513          	add	a0,a0,-222 # 8001de80 <itable>
    80002f66:	c51fd0ef          	jal	80000bb6 <acquire>
    80002f6a:	4901                	li	s2,0
    80002f6c:	0001b497          	auipc	s1,0x1b
    80002f70:	f2c48493          	add	s1,s1,-212 # 8001de98 <itable+0x18>
    80002f74:	0001d697          	auipc	a3,0x1d
    80002f78:	9b468693          	add	a3,a3,-1612 # 8001f928 <log>
    80002f7c:	a039                	j	80002f8a <iget+0x40>
    80002f7e:	02090963          	beqz	s2,80002fb0 <iget+0x66>
    80002f82:	08848493          	add	s1,s1,136
    80002f86:	02d48863          	beq	s1,a3,80002fb6 <iget+0x6c>
    80002f8a:	449c                	lw	a5,8(s1)
    80002f8c:	fef059e3          	blez	a5,80002f7e <iget+0x34>
    80002f90:	4098                	lw	a4,0(s1)
    80002f92:	ff3716e3          	bne	a4,s3,80002f7e <iget+0x34>
    80002f96:	40d8                	lw	a4,4(s1)
    80002f98:	ff4713e3          	bne	a4,s4,80002f7e <iget+0x34>
    80002f9c:	2785                	addw	a5,a5,1
    80002f9e:	c49c                	sw	a5,8(s1)
    80002fa0:	0001b517          	auipc	a0,0x1b
    80002fa4:	ee050513          	add	a0,a0,-288 # 8001de80 <itable>
    80002fa8:	ca7fd0ef          	jal	80000c4e <release>
    80002fac:	8926                	mv	s2,s1
    80002fae:	a02d                	j	80002fd8 <iget+0x8e>
    80002fb0:	fbe9                	bnez	a5,80002f82 <iget+0x38>
    80002fb2:	8926                	mv	s2,s1
    80002fb4:	b7f9                	j	80002f82 <iget+0x38>
    80002fb6:	02090a63          	beqz	s2,80002fea <iget+0xa0>
    80002fba:	01392023          	sw	s3,0(s2)
    80002fbe:	01492223          	sw	s4,4(s2)
    80002fc2:	4785                	li	a5,1
    80002fc4:	00f92423          	sw	a5,8(s2)
    80002fc8:	04092023          	sw	zero,64(s2)
    80002fcc:	0001b517          	auipc	a0,0x1b
    80002fd0:	eb450513          	add	a0,a0,-332 # 8001de80 <itable>
    80002fd4:	c7bfd0ef          	jal	80000c4e <release>
    80002fd8:	854a                	mv	a0,s2
    80002fda:	70a2                	ld	ra,40(sp)
    80002fdc:	7402                	ld	s0,32(sp)
    80002fde:	64e2                	ld	s1,24(sp)
    80002fe0:	6942                	ld	s2,16(sp)
    80002fe2:	69a2                	ld	s3,8(sp)
    80002fe4:	6a02                	ld	s4,0(sp)
    80002fe6:	6145                	add	sp,sp,48
    80002fe8:	8082                	ret
    80002fea:	00004517          	auipc	a0,0x4
    80002fee:	53650513          	add	a0,a0,1334 # 80007520 <syscalls+0x158>
    80002ff2:	fd0fd0ef          	jal	800007c2 <panic>

0000000080002ff6 <iinit>:
    80002ff6:	7179                	add	sp,sp,-48
    80002ff8:	f406                	sd	ra,40(sp)
    80002ffa:	f022                	sd	s0,32(sp)
    80002ffc:	ec26                	sd	s1,24(sp)
    80002ffe:	e84a                	sd	s2,16(sp)
    80003000:	e44e                	sd	s3,8(sp)
    80003002:	1800                	add	s0,sp,48
    80003004:	00004597          	auipc	a1,0x4
    80003008:	52c58593          	add	a1,a1,1324 # 80007530 <syscalls+0x168>
    8000300c:	0001b517          	auipc	a0,0x1b
    80003010:	e7450513          	add	a0,a0,-396 # 8001de80 <itable>
    80003014:	b23fd0ef          	jal	80000b36 <initlock>
    80003018:	0001b497          	auipc	s1,0x1b
    8000301c:	e9048493          	add	s1,s1,-368 # 8001dea8 <itable+0x28>
    80003020:	0001d997          	auipc	s3,0x1d
    80003024:	91898993          	add	s3,s3,-1768 # 8001f938 <log+0x10>
    80003028:	00004917          	auipc	s2,0x4
    8000302c:	51090913          	add	s2,s2,1296 # 80007538 <syscalls+0x170>
    80003030:	85ca                	mv	a1,s2
    80003032:	8526                	mv	a0,s1
    80003034:	5d9000ef          	jal	80003e0c <initsleeplock>
    80003038:	08848493          	add	s1,s1,136
    8000303c:	ff349ae3          	bne	s1,s3,80003030 <iinit+0x3a>
    80003040:	70a2                	ld	ra,40(sp)
    80003042:	7402                	ld	s0,32(sp)
    80003044:	64e2                	ld	s1,24(sp)
    80003046:	6942                	ld	s2,16(sp)
    80003048:	69a2                	ld	s3,8(sp)
    8000304a:	6145                	add	sp,sp,48
    8000304c:	8082                	ret

000000008000304e <ialloc>:
    8000304e:	715d                	add	sp,sp,-80
    80003050:	e486                	sd	ra,72(sp)
    80003052:	e0a2                	sd	s0,64(sp)
    80003054:	fc26                	sd	s1,56(sp)
    80003056:	f84a                	sd	s2,48(sp)
    80003058:	f44e                	sd	s3,40(sp)
    8000305a:	f052                	sd	s4,32(sp)
    8000305c:	ec56                	sd	s5,24(sp)
    8000305e:	e85a                	sd	s6,16(sp)
    80003060:	e45e                	sd	s7,8(sp)
    80003062:	0880                	add	s0,sp,80
    80003064:	0001b797          	auipc	a5,0x1b
    80003068:	dfc78793          	add	a5,a5,-516 # 8001de60 <sb>
    8000306c:	47d8                	lw	a4,12(a5)
    8000306e:	4785                	li	a5,1
    80003070:	04e7f663          	bgeu	a5,a4,800030bc <ialloc+0x6e>
    80003074:	8a2a                	mv	s4,a0
    80003076:	8b2e                	mv	s6,a1
    80003078:	4485                	li	s1,1
    8000307a:	0001b997          	auipc	s3,0x1b
    8000307e:	de698993          	add	s3,s3,-538 # 8001de60 <sb>
    80003082:	00048a9b          	sext.w	s5,s1
    80003086:	0044d593          	srl	a1,s1,0x4
    8000308a:	0189a783          	lw	a5,24(s3)
    8000308e:	9dbd                	addw	a1,a1,a5
    80003090:	8552                	mv	a0,s4
    80003092:	a41ff0ef          	jal	80002ad2 <bread>
    80003096:	8baa                	mv	s7,a0
    80003098:	05850913          	add	s2,a0,88
    8000309c:	00f4f793          	and	a5,s1,15
    800030a0:	079a                	sll	a5,a5,0x6
    800030a2:	993e                	add	s2,s2,a5
    800030a4:	00091783          	lh	a5,0(s2)
    800030a8:	cf85                	beqz	a5,800030e0 <ialloc+0x92>
    800030aa:	b43ff0ef          	jal	80002bec <brelse>
    800030ae:	0485                	add	s1,s1,1
    800030b0:	00c9a703          	lw	a4,12(s3)
    800030b4:	0004879b          	sext.w	a5,s1
    800030b8:	fce7e5e3          	bltu	a5,a4,80003082 <ialloc+0x34>
    800030bc:	00004517          	auipc	a0,0x4
    800030c0:	48450513          	add	a0,a0,1156 # 80007540 <syscalls+0x178>
    800030c4:	c30fd0ef          	jal	800004f4 <printf>
    800030c8:	4501                	li	a0,0
    800030ca:	60a6                	ld	ra,72(sp)
    800030cc:	6406                	ld	s0,64(sp)
    800030ce:	74e2                	ld	s1,56(sp)
    800030d0:	7942                	ld	s2,48(sp)
    800030d2:	79a2                	ld	s3,40(sp)
    800030d4:	7a02                	ld	s4,32(sp)
    800030d6:	6ae2                	ld	s5,24(sp)
    800030d8:	6b42                	ld	s6,16(sp)
    800030da:	6ba2                	ld	s7,8(sp)
    800030dc:	6161                	add	sp,sp,80
    800030de:	8082                	ret
    800030e0:	04000613          	li	a2,64
    800030e4:	4581                	li	a1,0
    800030e6:	854a                	mv	a0,s2
    800030e8:	ba3fd0ef          	jal	80000c8a <memset>
    800030ec:	01691023          	sh	s6,0(s2)
    800030f0:	855e                	mv	a0,s7
    800030f2:	43d000ef          	jal	80003d2e <log_write>
    800030f6:	855e                	mv	a0,s7
    800030f8:	af5ff0ef          	jal	80002bec <brelse>
    800030fc:	85d6                	mv	a1,s5
    800030fe:	8552                	mv	a0,s4
    80003100:	e4bff0ef          	jal	80002f4a <iget>
    80003104:	b7d9                	j	800030ca <ialloc+0x7c>

0000000080003106 <iupdate>:
    80003106:	1101                	add	sp,sp,-32
    80003108:	ec06                	sd	ra,24(sp)
    8000310a:	e822                	sd	s0,16(sp)
    8000310c:	e426                	sd	s1,8(sp)
    8000310e:	e04a                	sd	s2,0(sp)
    80003110:	1000                	add	s0,sp,32
    80003112:	84aa                	mv	s1,a0
    80003114:	415c                	lw	a5,4(a0)
    80003116:	0047d79b          	srlw	a5,a5,0x4
    8000311a:	0001b717          	auipc	a4,0x1b
    8000311e:	d4670713          	add	a4,a4,-698 # 8001de60 <sb>
    80003122:	4f0c                	lw	a1,24(a4)
    80003124:	9dbd                	addw	a1,a1,a5
    80003126:	4108                	lw	a0,0(a0)
    80003128:	9abff0ef          	jal	80002ad2 <bread>
    8000312c:	892a                	mv	s2,a0
    8000312e:	05850513          	add	a0,a0,88
    80003132:	40dc                	lw	a5,4(s1)
    80003134:	8bbd                	and	a5,a5,15
    80003136:	079a                	sll	a5,a5,0x6
    80003138:	953e                	add	a0,a0,a5
    8000313a:	04449783          	lh	a5,68(s1)
    8000313e:	00f51023          	sh	a5,0(a0)
    80003142:	04649783          	lh	a5,70(s1)
    80003146:	00f51123          	sh	a5,2(a0)
    8000314a:	04849783          	lh	a5,72(s1)
    8000314e:	00f51223          	sh	a5,4(a0)
    80003152:	04a49783          	lh	a5,74(s1)
    80003156:	00f51323          	sh	a5,6(a0)
    8000315a:	44fc                	lw	a5,76(s1)
    8000315c:	c51c                	sw	a5,8(a0)
    8000315e:	03400613          	li	a2,52
    80003162:	05048593          	add	a1,s1,80
    80003166:	0531                	add	a0,a0,12
    80003168:	b8ffd0ef          	jal	80000cf6 <memmove>
    8000316c:	854a                	mv	a0,s2
    8000316e:	3c1000ef          	jal	80003d2e <log_write>
    80003172:	854a                	mv	a0,s2
    80003174:	a79ff0ef          	jal	80002bec <brelse>
    80003178:	60e2                	ld	ra,24(sp)
    8000317a:	6442                	ld	s0,16(sp)
    8000317c:	64a2                	ld	s1,8(sp)
    8000317e:	6902                	ld	s2,0(sp)
    80003180:	6105                	add	sp,sp,32
    80003182:	8082                	ret

0000000080003184 <idup>:
    80003184:	1101                	add	sp,sp,-32
    80003186:	ec06                	sd	ra,24(sp)
    80003188:	e822                	sd	s0,16(sp)
    8000318a:	e426                	sd	s1,8(sp)
    8000318c:	1000                	add	s0,sp,32
    8000318e:	84aa                	mv	s1,a0
    80003190:	0001b517          	auipc	a0,0x1b
    80003194:	cf050513          	add	a0,a0,-784 # 8001de80 <itable>
    80003198:	a1ffd0ef          	jal	80000bb6 <acquire>
    8000319c:	449c                	lw	a5,8(s1)
    8000319e:	2785                	addw	a5,a5,1
    800031a0:	c49c                	sw	a5,8(s1)
    800031a2:	0001b517          	auipc	a0,0x1b
    800031a6:	cde50513          	add	a0,a0,-802 # 8001de80 <itable>
    800031aa:	aa5fd0ef          	jal	80000c4e <release>
    800031ae:	8526                	mv	a0,s1
    800031b0:	60e2                	ld	ra,24(sp)
    800031b2:	6442                	ld	s0,16(sp)
    800031b4:	64a2                	ld	s1,8(sp)
    800031b6:	6105                	add	sp,sp,32
    800031b8:	8082                	ret

00000000800031ba <ilock>:
    800031ba:	1101                	add	sp,sp,-32
    800031bc:	ec06                	sd	ra,24(sp)
    800031be:	e822                	sd	s0,16(sp)
    800031c0:	e426                	sd	s1,8(sp)
    800031c2:	e04a                	sd	s2,0(sp)
    800031c4:	1000                	add	s0,sp,32
    800031c6:	c105                	beqz	a0,800031e6 <ilock+0x2c>
    800031c8:	84aa                	mv	s1,a0
    800031ca:	451c                	lw	a5,8(a0)
    800031cc:	00f05d63          	blez	a5,800031e6 <ilock+0x2c>
    800031d0:	0541                	add	a0,a0,16
    800031d2:	471000ef          	jal	80003e42 <acquiresleep>
    800031d6:	40bc                	lw	a5,64(s1)
    800031d8:	cf89                	beqz	a5,800031f2 <ilock+0x38>
    800031da:	60e2                	ld	ra,24(sp)
    800031dc:	6442                	ld	s0,16(sp)
    800031de:	64a2                	ld	s1,8(sp)
    800031e0:	6902                	ld	s2,0(sp)
    800031e2:	6105                	add	sp,sp,32
    800031e4:	8082                	ret
    800031e6:	00004517          	auipc	a0,0x4
    800031ea:	37250513          	add	a0,a0,882 # 80007558 <syscalls+0x190>
    800031ee:	dd4fd0ef          	jal	800007c2 <panic>
    800031f2:	40dc                	lw	a5,4(s1)
    800031f4:	0047d79b          	srlw	a5,a5,0x4
    800031f8:	0001b717          	auipc	a4,0x1b
    800031fc:	c6870713          	add	a4,a4,-920 # 8001de60 <sb>
    80003200:	4f0c                	lw	a1,24(a4)
    80003202:	9dbd                	addw	a1,a1,a5
    80003204:	4088                	lw	a0,0(s1)
    80003206:	8cdff0ef          	jal	80002ad2 <bread>
    8000320a:	892a                	mv	s2,a0
    8000320c:	05850593          	add	a1,a0,88
    80003210:	40dc                	lw	a5,4(s1)
    80003212:	8bbd                	and	a5,a5,15
    80003214:	079a                	sll	a5,a5,0x6
    80003216:	95be                	add	a1,a1,a5
    80003218:	00059783          	lh	a5,0(a1)
    8000321c:	04f49223          	sh	a5,68(s1)
    80003220:	00259783          	lh	a5,2(a1)
    80003224:	04f49323          	sh	a5,70(s1)
    80003228:	00459783          	lh	a5,4(a1)
    8000322c:	04f49423          	sh	a5,72(s1)
    80003230:	00659783          	lh	a5,6(a1)
    80003234:	04f49523          	sh	a5,74(s1)
    80003238:	459c                	lw	a5,8(a1)
    8000323a:	c4fc                	sw	a5,76(s1)
    8000323c:	03400613          	li	a2,52
    80003240:	05b1                	add	a1,a1,12
    80003242:	05048513          	add	a0,s1,80
    80003246:	ab1fd0ef          	jal	80000cf6 <memmove>
    8000324a:	854a                	mv	a0,s2
    8000324c:	9a1ff0ef          	jal	80002bec <brelse>
    80003250:	4785                	li	a5,1
    80003252:	c0bc                	sw	a5,64(s1)
    80003254:	04449783          	lh	a5,68(s1)
    80003258:	f3c9                	bnez	a5,800031da <ilock+0x20>
    8000325a:	00004517          	auipc	a0,0x4
    8000325e:	30650513          	add	a0,a0,774 # 80007560 <syscalls+0x198>
    80003262:	d60fd0ef          	jal	800007c2 <panic>

0000000080003266 <iunlock>:
    80003266:	1101                	add	sp,sp,-32
    80003268:	ec06                	sd	ra,24(sp)
    8000326a:	e822                	sd	s0,16(sp)
    8000326c:	e426                	sd	s1,8(sp)
    8000326e:	e04a                	sd	s2,0(sp)
    80003270:	1000                	add	s0,sp,32
    80003272:	c505                	beqz	a0,8000329a <iunlock+0x34>
    80003274:	84aa                	mv	s1,a0
    80003276:	01050913          	add	s2,a0,16
    8000327a:	854a                	mv	a0,s2
    8000327c:	445000ef          	jal	80003ec0 <holdingsleep>
    80003280:	cd09                	beqz	a0,8000329a <iunlock+0x34>
    80003282:	449c                	lw	a5,8(s1)
    80003284:	00f05b63          	blez	a5,8000329a <iunlock+0x34>
    80003288:	854a                	mv	a0,s2
    8000328a:	3ff000ef          	jal	80003e88 <releasesleep>
    8000328e:	60e2                	ld	ra,24(sp)
    80003290:	6442                	ld	s0,16(sp)
    80003292:	64a2                	ld	s1,8(sp)
    80003294:	6902                	ld	s2,0(sp)
    80003296:	6105                	add	sp,sp,32
    80003298:	8082                	ret
    8000329a:	00004517          	auipc	a0,0x4
    8000329e:	2d650513          	add	a0,a0,726 # 80007570 <syscalls+0x1a8>
    800032a2:	d20fd0ef          	jal	800007c2 <panic>

00000000800032a6 <itrunc>:
    800032a6:	7179                	add	sp,sp,-48
    800032a8:	f406                	sd	ra,40(sp)
    800032aa:	f022                	sd	s0,32(sp)
    800032ac:	ec26                	sd	s1,24(sp)
    800032ae:	e84a                	sd	s2,16(sp)
    800032b0:	e44e                	sd	s3,8(sp)
    800032b2:	e052                	sd	s4,0(sp)
    800032b4:	1800                	add	s0,sp,48
    800032b6:	89aa                	mv	s3,a0
    800032b8:	05050493          	add	s1,a0,80
    800032bc:	08050913          	add	s2,a0,128
    800032c0:	a811                	j	800032d4 <itrunc+0x2e>
    800032c2:	0009a503          	lw	a0,0(s3)
    800032c6:	a19ff0ef          	jal	80002cde <bfree>
    800032ca:	0004a023          	sw	zero,0(s1)
    800032ce:	0491                	add	s1,s1,4
    800032d0:	01248563          	beq	s1,s2,800032da <itrunc+0x34>
    800032d4:	408c                	lw	a1,0(s1)
    800032d6:	dde5                	beqz	a1,800032ce <itrunc+0x28>
    800032d8:	b7ed                	j	800032c2 <itrunc+0x1c>
    800032da:	0809a583          	lw	a1,128(s3)
    800032de:	ed91                	bnez	a1,800032fa <itrunc+0x54>
    800032e0:	0409a623          	sw	zero,76(s3)
    800032e4:	854e                	mv	a0,s3
    800032e6:	e21ff0ef          	jal	80003106 <iupdate>
    800032ea:	70a2                	ld	ra,40(sp)
    800032ec:	7402                	ld	s0,32(sp)
    800032ee:	64e2                	ld	s1,24(sp)
    800032f0:	6942                	ld	s2,16(sp)
    800032f2:	69a2                	ld	s3,8(sp)
    800032f4:	6a02                	ld	s4,0(sp)
    800032f6:	6145                	add	sp,sp,48
    800032f8:	8082                	ret
    800032fa:	0009a503          	lw	a0,0(s3)
    800032fe:	fd4ff0ef          	jal	80002ad2 <bread>
    80003302:	8a2a                	mv	s4,a0
    80003304:	05850493          	add	s1,a0,88
    80003308:	45850913          	add	s2,a0,1112
    8000330c:	a801                	j	8000331c <itrunc+0x76>
    8000330e:	0009a503          	lw	a0,0(s3)
    80003312:	9cdff0ef          	jal	80002cde <bfree>
    80003316:	0491                	add	s1,s1,4
    80003318:	01248563          	beq	s1,s2,80003322 <itrunc+0x7c>
    8000331c:	408c                	lw	a1,0(s1)
    8000331e:	dde5                	beqz	a1,80003316 <itrunc+0x70>
    80003320:	b7fd                	j	8000330e <itrunc+0x68>
    80003322:	8552                	mv	a0,s4
    80003324:	8c9ff0ef          	jal	80002bec <brelse>
    80003328:	0809a583          	lw	a1,128(s3)
    8000332c:	0009a503          	lw	a0,0(s3)
    80003330:	9afff0ef          	jal	80002cde <bfree>
    80003334:	0809a023          	sw	zero,128(s3)
    80003338:	b765                	j	800032e0 <itrunc+0x3a>

000000008000333a <iput>:
    8000333a:	1101                	add	sp,sp,-32
    8000333c:	ec06                	sd	ra,24(sp)
    8000333e:	e822                	sd	s0,16(sp)
    80003340:	e426                	sd	s1,8(sp)
    80003342:	e04a                	sd	s2,0(sp)
    80003344:	1000                	add	s0,sp,32
    80003346:	84aa                	mv	s1,a0
    80003348:	0001b517          	auipc	a0,0x1b
    8000334c:	b3850513          	add	a0,a0,-1224 # 8001de80 <itable>
    80003350:	867fd0ef          	jal	80000bb6 <acquire>
    80003354:	4498                	lw	a4,8(s1)
    80003356:	4785                	li	a5,1
    80003358:	02f70163          	beq	a4,a5,8000337a <iput+0x40>
    8000335c:	449c                	lw	a5,8(s1)
    8000335e:	37fd                	addw	a5,a5,-1
    80003360:	c49c                	sw	a5,8(s1)
    80003362:	0001b517          	auipc	a0,0x1b
    80003366:	b1e50513          	add	a0,a0,-1250 # 8001de80 <itable>
    8000336a:	8e5fd0ef          	jal	80000c4e <release>
    8000336e:	60e2                	ld	ra,24(sp)
    80003370:	6442                	ld	s0,16(sp)
    80003372:	64a2                	ld	s1,8(sp)
    80003374:	6902                	ld	s2,0(sp)
    80003376:	6105                	add	sp,sp,32
    80003378:	8082                	ret
    8000337a:	40bc                	lw	a5,64(s1)
    8000337c:	d3e5                	beqz	a5,8000335c <iput+0x22>
    8000337e:	04a49783          	lh	a5,74(s1)
    80003382:	ffe9                	bnez	a5,8000335c <iput+0x22>
    80003384:	01048913          	add	s2,s1,16
    80003388:	854a                	mv	a0,s2
    8000338a:	2b9000ef          	jal	80003e42 <acquiresleep>
    8000338e:	0001b517          	auipc	a0,0x1b
    80003392:	af250513          	add	a0,a0,-1294 # 8001de80 <itable>
    80003396:	8b9fd0ef          	jal	80000c4e <release>
    8000339a:	8526                	mv	a0,s1
    8000339c:	f0bff0ef          	jal	800032a6 <itrunc>
    800033a0:	04049223          	sh	zero,68(s1)
    800033a4:	8526                	mv	a0,s1
    800033a6:	d61ff0ef          	jal	80003106 <iupdate>
    800033aa:	0404a023          	sw	zero,64(s1)
    800033ae:	854a                	mv	a0,s2
    800033b0:	2d9000ef          	jal	80003e88 <releasesleep>
    800033b4:	0001b517          	auipc	a0,0x1b
    800033b8:	acc50513          	add	a0,a0,-1332 # 8001de80 <itable>
    800033bc:	ffafd0ef          	jal	80000bb6 <acquire>
    800033c0:	bf71                	j	8000335c <iput+0x22>

00000000800033c2 <iunlockput>:
    800033c2:	1101                	add	sp,sp,-32
    800033c4:	ec06                	sd	ra,24(sp)
    800033c6:	e822                	sd	s0,16(sp)
    800033c8:	e426                	sd	s1,8(sp)
    800033ca:	1000                	add	s0,sp,32
    800033cc:	84aa                	mv	s1,a0
    800033ce:	e99ff0ef          	jal	80003266 <iunlock>
    800033d2:	8526                	mv	a0,s1
    800033d4:	f67ff0ef          	jal	8000333a <iput>
    800033d8:	60e2                	ld	ra,24(sp)
    800033da:	6442                	ld	s0,16(sp)
    800033dc:	64a2                	ld	s1,8(sp)
    800033de:	6105                	add	sp,sp,32
    800033e0:	8082                	ret

00000000800033e2 <ireclaim>:
    800033e2:	0001b797          	auipc	a5,0x1b
    800033e6:	a7e78793          	add	a5,a5,-1410 # 8001de60 <sb>
    800033ea:	47d8                	lw	a4,12(a5)
    800033ec:	4785                	li	a5,1
    800033ee:	0ae7ff63          	bgeu	a5,a4,800034ac <ireclaim+0xca>
    800033f2:	7139                	add	sp,sp,-64
    800033f4:	fc06                	sd	ra,56(sp)
    800033f6:	f822                	sd	s0,48(sp)
    800033f8:	f426                	sd	s1,40(sp)
    800033fa:	f04a                	sd	s2,32(sp)
    800033fc:	ec4e                	sd	s3,24(sp)
    800033fe:	e852                	sd	s4,16(sp)
    80003400:	e456                	sd	s5,8(sp)
    80003402:	e05a                	sd	s6,0(sp)
    80003404:	0080                	add	s0,sp,64
    80003406:	4485                	li	s1,1
    80003408:	00050a1b          	sext.w	s4,a0
